Certificate:
    Data:
        Version: 3 (0x2)
        Serial Number: 17 (0x11)
        Signature Algorithm: sha1WithRSAEncryption
        Issuer: C=BA, ST=RS, L=Banja Luka, O=Elektrotehnicki fakultet, OU=ETF, CN=CA_tijelo/emailAddress=ca@mail.com
        Validity
            Not Before: Jan 22 15:41:09 2024 GMT
            Not After : Jan 21 15:41:09 2025 GMT
        Subject: C=do, ST=dora, O=dora, OU=dora, CN=dora/emailAddress=dora
        Subject Public Key Info:
            Public Key Algorithm: rsaEncryption
                RSA Public-Key: (4096 bit)
                Modulus:
                    00:ca:de:e8:69:ea:b7:6e:fd:86:65:8a:cb:42:b9:
                    63:f0:59:e4:2d:35:a7:94:1c:44:fe:5c:c8:7a:55:
                    79:73:4c:09:16:4d:f4:80:28:e3:ec:38:73:52:10:
                    4f:04:99:68:2c:67:0d:ce:2b:6d:7c:8a:1e:78:81:
                    96:4e:39:6d:11:f0:67:2b:9a:fb:7c:a4:7b:71:49:
                    ac:2f:34:8b:2b:66:1b:df:e4:7f:c8:d7:47:97:b5:
                    c0:f4:08:ca:c1:65:a8:ed:de:0f:aa:ae:b4:eb:1f:
                    5c:82:32:3a:8b:f1:dd:bd:f1:ec:9c:f7:04:ae:c1:
                    0c:3a:f9:4d:46:0c:d3:b3:cd:92:25:b9:29:96:bf:
                    38:14:ee:ba:89:6c:c4:f7:d2:c7:70:dc:0f:29:12:
                    2d:49:2e:70:df:60:26:f6:12:79:5a:5d:19:84:54:
                    68:66:f8:4f:89:44:f4:c9:a4:f9:55:38:d5:9f:71:
                    86:bc:ba:fc:39:81:df:9d:e4:ba:93:28:b5:69:a2:
                    2c:00:f6:02:07:99:3a:71:00:fb:d6:92:49:d4:4a:
                    4b:c4:45:ca:21:f4:19:f3:5d:85:e0:f5:9f:d7:2e:
                    0c:3d:58:28:90:ed:2b:84:b2:85:82:06:5b:03:2e:
                    03:e8:3a:56:41:8a:00:db:18:20:53:9e:8a:2f:7c:
                    52:99:97:ff:36:b4:96:9c:8f:71:13:24:c9:72:64:
                    0b:ce:84:7b:10:6b:ac:97:a5:1e:dc:a1:d1:03:41:
                    ee:24:45:21:d0:20:54:25:2c:d3:62:63:51:bc:e1:
                    ad:ef:26:48:5e:37:bc:d6:23:53:1e:e0:3b:ff:62:
                    f6:1d:82:8d:08:f8:d8:3b:5c:be:7a:8a:eb:99:68:
                    a1:fc:ce:25:b8:5f:fc:2f:5c:40:55:bd:27:2a:e5:
                    47:cf:53:6c:18:d4:36:71:f2:04:45:53:52:0b:18:
                    3f:62:5f:d1:09:c2:55:36:6d:84:d8:02:f4:91:e0:
                    44:b9:a0:03:64:7a:e4:ae:1a:cf:6d:5d:1b:42:5d:
                    f0:1b:63:a9:c3:15:24:9e:ad:db:e3:06:02:05:47:
                    b7:cd:f9:d0:06:2b:08:39:39:eb:16:ed:31:b3:79:
                    cd:15:68:1f:9d:98:04:33:67:2b:50:ff:66:59:97:
                    ea:62:13:17:39:11:3b:f9:d0:8c:0a:89:30:42:38:
                    30:3b:c7:bd:29:6a:9a:82:c2:a6:1f:d4:ef:2c:b8:
                    da:42:05:40:67:fc:3e:fe:f6:cd:71:9b:f6:c4:9c:
                    61:b1:c8:54:4a:61:76:71:ff:62:b0:c2:ef:36:2d:
                    ee:9e:b3:78:2d:8e:a7:95:d3:de:c6:fe:3d:e6:a7:
                    93:2f:21
                Exponent: 65537 (0x10001)
        X509v3 extensions:
            X509v3 Basic Constraints: 
                CA:FALSE
            X509v3 Key Usage: 
                Digital Signature
            X509v3 Extended Key Usage: 
                TLS Web Client Authentication, TLS Web Server Authentication
            Netscape Comment: 
                OpenSSL Generated Certificate
            X509v3 Subject Key Identifier: 
                B2:DA:CA:90:65:C3:8B:F3:02:67:80:22:04:D0:E5:57:92:87:B9:C1
            X509v3 Authority Key Identifier: 
                keyid:E1:C3:90:50:1C:40:C7:2F:11:19:E3:F0:60:56:47:C0:46:85:91:62

            X509v3 CRL Distribution Points: 

                Full Name:
                  URI:http://192.168.21.89/rootcrl.pem

    Signature Algorithm: sha1WithRSAEncryption
         46:ee:cd:4a:d0:2d:70:9d:1c:0f:2b:dc:c4:1a:10:53:03:74:
         22:3b:94:2e:56:9f:ab:c7:0d:b9:9c:b9:77:4d:7b:03:f9:22:
         9d:f8:4b:ba:58:77:fc:be:43:2b:71:80:1a:d6:2c:d5:31:08:
         f6:30:58:b4:9c:d5:30:01:5d:49:48:f6:4a:ec:eb:1c:ad:3a:
         59:79:3c:ce:76:60:ce:f5:3d:c5:d6:3e:13:64:f6:b3:9e:0b:
         3b:23:a2:0a:e9:21:98:78:41:80:c8:e9:02:4a:ef:e3:13:49:
         83:67:b5:cf:ce:da:2a:f4:3e:bd:3e:42:3d:63:a8:4f:71:ab:
         29:3b:ce:bf:19:94:b8:8f:10:fa:20:36:2a:36:2d:0e:9b:84:
         bc:0c:ac:03:ad:12:05:ec:e8:c4:2b:24:67:42:56:c9:70:60:
         0d:6f:ec:32:6a:da:35:b8:d5:3b:95:1d:0a:4c:3d:02:8e:b9:
         f6:0d:57:f5:ad:99:16:11:09:69:c1:2f:a4:53:03:33:ce:2d:
         12:9e:a5:6e:6b:d9:65:9e:60:bc:88:d6:92:9f:99:aa:b6:0a:
         59:b0:e1:6c:0c:c5:78:d6:50:4d:16:a8:56:2f:4a:65:43:a8:
         f7:84:ca:59:d4:fd:15:66:00:a1:32:17:26:fc:5d:a8:ed:79:
         e1:55:36:87:3e:cc:f4:fe:a3:08:d6:67:18:6e:a8:a4:c5:cd:
         9e:76:8c:b3:da:26:5a:87:ac:0e:28:3a:93:e4:a5:f9:ec:d4:
         89:6a:7c:b0:43:1a:6a:97:b2:7f:6b:e2:30:51:42:4f:21:20:
         90:4e:28:72:13:0c:e6:d5:69:22:c6:0a:69:91:3f:fe:36:77:
         1d:91:eb:8d:74:43:95:84:9a:d4:ef:3a:14:ea:d4:87:8e:c8:
         e6:c4:3f:60:b5:f5:1e:54:d4:6d:0e:e5:b0:4d:78:10:12:8f:
         52:be:e6:11:fc:47:cb:a7:8f:9a:e1:20:97:fa:89:65:44:c2:
         39:68:06:10:52:34:55:0f:94:9d:e1:d3:16:8a:c5:ee:99:7f:
         6e:61:50:b2:6a:b1:6c:b2:f0:a6:06:51:68:3f:e2:90:c0:f3:
         85:1d:2f:ce:0a:3a:50:83:bb:f4:7e:f5:5c:04:d6:30:23:cc:
         41:81:2f:12:86:e9:61:1d:d8:fb:61:0d:48:1f:57:38:fa:55:
         7a:dd:37:27:c5:6d:76:86:55:7f:01:80:86:1b:29:ab:ed:ae:
         df:88:1c:b6:72:7c:40:c7:72:6b:97:ce:e3:37:13:00:ef:ca:
         0e:19:fb:06:1d:69:1c:1d:75:28:97:e9:12:cc:91:6f:e7:30:
         71:14:40:8b:a3:43:df:2a
-----BEGIN CERTIFICATE-----
MIIGRjCCBC6gAwIBAgIBETANBgkqhkiG9w0BAQUFADCBkDELMAkGA1UEBhMCQkEx
CzAJBgNVBAgTAlJTMRMwEQYDVQQHEwpCYW5qYSBMdWthMSEwHwYDVQQKExhFbGVr
dHJvdGVobmlja2kgZmFrdWx0ZXQxDDAKBgNVBAsTA0VURjESMBAGA1UEAxQJQ0Ff
dGlqZWxvMRowGAYJKoZIhvcNAQkBFgtjYUBtYWlsLmNvbTAeFw0yNDAxMjIxNTQx
MDlaFw0yNTAxMjExNTQxMDlaMF4xCzAJBgNVBAYTAmRvMQ0wCwYDVQQIEwRkb3Jh
MQ0wCwYDVQQKEwRkb3JhMQ0wCwYDVQQLEwRkb3JhMQ0wCwYDVQQDEwRkb3JhMRMw
EQYJKoZIhvcNAQkBFgRkb3JhMIICIjANBgkqhkiG9w0BAQEFAAOCAg8AMIICCgKC
AgEAyt7oaeq3bv2GZYrLQrlj8FnkLTWnlBxE/lzIelV5c0wJFk30gCjj7DhzUhBP
BJloLGcNzittfIoeeIGWTjltEfBnK5r7fKR7cUmsLzSLK2Yb3+R/yNdHl7XA9AjK
wWWo7d4Pqq606x9cgjI6i/HdvfHsnPcErsEMOvlNRgzTs82SJbkplr84FO66iWzE
99LHcNwPKRItSS5w32Am9hJ5Wl0ZhFRoZvhPiUT0yaT5VTjVn3GGvLr8OYHfneS6
kyi1aaIsAPYCB5k6cQD71pJJ1EpLxEXKIfQZ812F4PWf1y4MPVgokO0rhLKFggZb
Ay4D6DpWQYoA2xggU56KL3xSmZf/NrSWnI9xEyTJcmQLzoR7EGusl6Ue3KHRA0Hu
JEUh0CBUJSzTYmNRvOGt7yZIXje81iNTHuA7/2L2HYKNCPjYO1y+eorrmWih/M4l
uF/8L1xAVb0nKuVHz1NsGNQ2cfIERVNSCxg/Yl/RCcJVNm2E2AL0keBEuaADZHrk
rhrPbV0bQl3wG2OpwxUknq3b4wYCBUe3zfnQBisIOTnrFu0xs3nNFWgfnZgEM2cr
UP9mWZfqYhMXORE7+dCMCokwQjgwO8e9KWqagsKmH9TvLLjaQgVAZ/w+/vbNcZv2
xJxhschUSmF2cf9isMLvNi3unrN4LY6nldPexv495qeTLyECAwEAAaOB2zCB2DAJ
BgNVHRMEAjAAMAsGA1UdDwQEAwIHgDAdBgNVHSUEFjAUBggrBgEFBQcDAgYIKwYB
BQUHAwEwLAYJYIZIAYb4QgENBB8WHU9wZW5TU0wgR2VuZXJhdGVkIENlcnRpZmlj
YXRlMB0GA1UdDgQWBBSy2sqQZcOL8wJngCIE0OVXkoe5wTAfBgNVHSMEGDAWgBTh
w5BQHEDHLxEZ4/BgVkfARoWRYjAxBgNVHR8EKjAoMCagJKAihiBodHRwOi8vMTky
LjE2OC4yMS44OS9yb290Y3JsLnBlbTANBgkqhkiG9w0BAQUFAAOCAgEARu7NStAt
cJ0cDyvcxBoQUwN0IjuULlafq8cNuZy5d017A/kinfhLulh3/L5DK3GAGtYs1TEI
9jBYtJzVMAFdSUj2SuzrHK06WXk8znZgzvU9xdY+E2T2s54LOyOiCukhmHhBgMjp
Akrv4xNJg2e1z87aKvQ+vT5CPWOoT3GrKTvOvxmUuI8Q+iA2KjYtDpuEvAysA60S
BezoxCskZ0JWyXBgDW/sMmraNbjVO5UdCkw9Ao659g1X9a2ZFhEJacEvpFMDM84t
Ep6lbmvZZZ5gvIjWkp+ZqrYKWbDhbAzFeNZQTRaoVi9KZUOo94TKWdT9FWYAoTIX
JvxdqO154VU2hz7M9P6jCNZnGG6opMXNnnaMs9omWoesDig6k+Sl+ezUiWp8sEMa
apeyf2viMFFCTyEgkE4ochMM5tVpIsYKaZE//jZ3HZHrjXRDlYSa1O86FOrUh47I
5sQ/YLX1HlTUbQ7lsE14EBKPUr7mEfxHy6ePmuEgl/qJZUTCOWgGEFI0VQ+UneHT
ForF7pl/bmFQsmqxbLLwpgZRaD/ikMDzhR0vzgo6UIO79H71XATWMCPMQYEvEobp
YR3Y+2ENSB9XOPpVet03J8VtdoZVfwGAhhspq+2u34gctnJ8QMdya5fO4zcTAO/K
Dhn7Bh1pHB11KJfpEsyRb+cwcRRAi6ND3yo=
-----END CERTIFICATE-----
