Certificate:
    Data:
        Version: 3 (0x2)
        Serial Number: 4 (0x4)
        Signature Algorithm: sha1WithRSAEncryption
        Issuer: C=BA, ST=RS, L=Banja Luka, O=Elektrotehnicki fakultet, OU=ETF, CN=CA_tijelo/emailAddress=ca@mail.com
        Validity
            Not Before: Jan 22 01:52:35 2024 GMT
            Not After : Jan 21 01:52:35 2025 GMT
        Subject: C=BA, ST=RS, O=ETFF, OU=ETFF, CN=ETF/emailAddress=ETF
        Subject Public Key Info:
            Public Key Algorithm: rsaEncryption
                RSA Public-Key: (4096 bit)
                Modulus:
                    00:a9:d2:d6:2e:6a:87:55:c0:c9:8f:0e:ea:df:d1:
                    48:f8:e6:8e:c3:f0:d0:94:87:3d:5c:e3:09:93:88:
                    35:63:64:ba:7d:1a:e6:bd:54:fb:cd:74:29:1e:02:
                    2b:83:b4:42:17:30:08:68:9b:70:1b:9e:0a:a5:54:
                    45:ba:46:da:a8:61:b0:ca:c8:d6:8e:eb:e9:f3:7b:
                    f1:7b:d9:46:a2:39:3a:09:98:b0:a6:fd:96:ff:2c:
                    19:64:6c:ed:7c:4c:91:20:5b:21:25:b7:87:4d:1d:
                    43:db:fe:42:24:cc:f4:8c:47:8a:c8:ed:37:94:d5:
                    a0:8b:85:4a:85:e4:ab:a5:c7:5d:83:bf:8c:db:ed:
                    85:88:ef:f3:af:4b:c8:35:f2:58:f3:d1:ac:a6:61:
                    b6:9a:fe:11:1d:f5:9a:3e:eb:aa:f7:c6:31:be:ee:
                    fe:bf:5c:45:ca:6e:ae:ef:a4:65:1f:76:1c:27:7b:
                    b5:7c:8a:35:67:c6:e7:0b:56:08:e8:53:b1:ec:85:
                    e8:aa:f7:fe:8e:70:aa:80:96:f1:2e:c9:f5:97:1f:
                    94:06:3b:49:48:fa:80:bc:40:6b:ec:07:8e:f9:b1:
                    50:4f:f8:06:8b:31:bd:33:44:9b:48:df:e6:81:b7:
                    ae:73:bb:fe:9d:d5:f6:57:9f:a3:07:fe:65:72:93:
                    1f:f5:a6:5f:76:af:b8:81:84:ce:67:bc:a4:04:fa:
                    8c:52:5a:35:e0:7f:73:80:e9:8c:bc:6e:ac:99:90:
                    b6:22:bf:75:14:18:d9:da:9e:f9:06:d0:ab:82:32:
                    53:9d:07:77:bb:8e:a0:e5:da:b5:16:16:bd:a1:56:
                    b2:9d:15:86:8f:67:f6:d5:15:8f:3f:f5:6a:ac:8b:
                    2a:77:1a:21:c0:c2:e5:f2:b6:a0:c5:66:27:44:d4:
                    97:96:99:8b:da:3a:3a:57:de:d7:ca:76:e7:c6:c4:
                    32:5f:58:e1:b5:89:c1:70:fb:6d:1d:3f:a2:cc:79:
                    ce:81:cb:02:58:f9:bc:d2:97:e4:45:4c:f7:eb:60:
                    4d:47:3e:17:04:ea:22:41:7b:cf:b6:61:5d:d0:9b:
                    7b:fd:63:3b:f5:16:8b:24:9b:4b:76:6a:1a:60:d8:
                    92:77:92:e2:4d:d7:fd:04:82:6b:a6:02:06:02:8a:
                    aa:5f:e0:ec:c1:c4:25:c6:c8:8f:51:b2:14:41:dd:
                    d0:68:10:38:0a:b9:a7:ef:9c:b9:d7:0b:54:b9:24:
                    0e:f6:67:5f:8b:f7:94:5c:1d:01:5a:62:4d:eb:fb:
                    1e:47:d6:10:95:5d:cd:81:3e:f4:d3:0e:a4:40:cb:
                    dd:db:60:cf:2e:65:0c:54:42:b7:4e:17:ee:a4:83:
                    d8:14:c5
                Exponent: 65537 (0x10001)
        X509v3 extensions:
            X509v3 Basic Constraints: 
                CA:FALSE
            X509v3 Key Usage: 
                Digital Signature
            X509v3 Extended Key Usage: 
                TLS Web Client Authentication, TLS Web Server Authentication
            Netscape Comment: 
                OpenSSL Generated Certificate
            X509v3 Subject Key Identifier: 
                36:5B:EE:BC:6A:90:92:5E:9B:3B:C0:D3:54:AD:A4:A7:C8:A4:62:4F
            X509v3 Authority Key Identifier: 
                keyid:E1:C3:90:50:1C:40:C7:2F:11:19:E3:F0:60:56:47:C0:46:85:91:62

            X509v3 CRL Distribution Points: 

                Full Name:
                  URI:http://192.168.21.89/rootcrl.pem

    Signature Algorithm: sha1WithRSAEncryption
         03:ad:25:02:4d:3e:c7:e0:05:05:57:4c:cb:85:d0:65:65:db:
         0f:28:db:ba:23:95:b9:4c:e1:15:56:8d:25:b0:a0:5f:f6:7b:
         96:07:17:50:c9:9a:e9:bb:c8:a5:49:ba:34:46:e0:bb:ab:ee:
         eb:1b:e8:2d:49:4a:61:8c:a9:0b:6b:0f:c1:47:70:ef:36:a9:
         1d:c7:63:27:bc:9a:9a:68:68:62:36:9a:81:41:22:62:fd:02:
         b6:45:0a:02:e2:e4:f6:58:c3:13:b4:01:dc:3a:b3:c4:29:f1:
         f9:75:12:55:39:96:1f:9b:09:17:5b:d6:00:18:7d:ec:a2:5b:
         f2:71:53:35:3b:0c:96:70:1a:1f:1e:e0:18:2b:27:a2:7e:c1:
         62:23:f9:db:52:74:20:3c:a1:b1:d2:6a:05:1a:bb:ef:38:3f:
         c4:4c:4f:56:5c:7f:5d:1e:cb:4a:f0:52:93:d4:0d:26:44:fd:
         06:67:af:4b:90:4f:27:09:4f:c8:d0:c9:76:00:99:ec:a2:61:
         99:0f:27:37:1d:79:d5:4a:cc:28:0d:31:51:e2:b2:b7:64:73:
         9b:30:91:23:d6:ce:20:d6:88:e3:2a:4e:21:e8:98:a5:15:77:
         f5:60:64:01:52:65:01:ee:7f:d0:d1:a0:1d:6f:2f:cd:11:5d:
         6b:f9:53:2d:50:b9:63:8b:73:11:b5:cb:29:df:d3:b3:a7:8d:
         b6:66:10:69:19:a9:5c:3f:8d:af:33:7d:29:12:ae:c1:4d:83:
         87:e2:6f:e1:e7:3c:eb:ae:99:a7:6b:69:1a:32:ec:9e:0d:1b:
         04:bb:e7:4e:15:d3:8f:a2:3d:9e:0b:27:bd:ae:fa:2b:be:c8:
         4d:04:09:22:6b:2f:16:e3:5a:45:11:d3:5b:60:b0:09:32:06:
         53:01:42:f5:11:b8:32:f0:58:9b:26:ed:9c:61:62:d0:92:33:
         c9:f6:bf:05:48:7d:97:63:09:8b:2e:40:9e:0c:a9:78:3d:f5:
         29:d9:38:ac:82:76:88:4b:7d:39:b5:50:99:9c:99:4b:15:cf:
         4b:52:8c:ca:c8:ec:91:83:cd:93:f2:d7:5c:1f:1f:da:1e:a4:
         6d:52:af:df:86:07:32:74:67:9f:b8:34:4f:20:9b:3f:9c:7e:
         3d:a9:a6:e3:a4:86:50:35:28:57:13:65:3b:1c:32:06:c1:95:
         2d:9e:31:d5:66:c2:03:f5:11:e0:dd:a1:d2:10:13:51:3b:9e:
         2a:ce:88:d1:3d:22:fb:5b:fa:5c:dc:d8:74:ee:8f:8d:09:5f:
         ee:d1:9e:fe:8f:88:4c:c7:13:14:14:de:7b:96:4f:b7:39:e7:
         fc:66:a6:91:9b:ef:23:0c
-----BEGIN CERTIFICATE-----
MIIGQjCCBCqgAwIBAgIBBDANBgkqhkiG9w0BAQUFADCBkDELMAkGA1UEBhMCQkEx
CzAJBgNVBAgTAlJTMRMwEQYDVQQHEwpCYW5qYSBMdWthMSEwHwYDVQQKExhFbGVr
dHJvdGVobmlja2kgZmFrdWx0ZXQxDDAKBgNVBAsTA0VURjESMBAGA1UEAxQJQ0Ff
dGlqZWxvMRowGAYJKoZIhvcNAQkBFgtjYUBtYWlsLmNvbTAeFw0yNDAxMjIwMTUy
MzVaFw0yNTAxMjEwMTUyMzVaMFoxCzAJBgNVBAYTAkJBMQswCQYDVQQIEwJSUzEN
MAsGA1UEChMERVRGRjENMAsGA1UECxMERVRGRjEMMAoGA1UEAxMDRVRGMRIwEAYJ
KoZIhvcNAQkBFgNFVEYwggIiMA0GCSqGSIb3DQEBAQUAA4ICDwAwggIKAoICAQCp
0tYuaodVwMmPDurf0Uj45o7D8NCUhz1c4wmTiDVjZLp9Gua9VPvNdCkeAiuDtEIX
MAhom3AbngqlVEW6RtqoYbDKyNaO6+nze/F72UaiOToJmLCm/Zb/LBlkbO18TJEg
WyElt4dNHUPb/kIkzPSMR4rI7TeU1aCLhUqF5Kulx12Dv4zb7YWI7/OvS8g18ljz
0aymYbaa/hEd9Zo+66r3xjG+7v6/XEXKbq7vpGUfdhwne7V8ijVnxucLVgjoU7Hs
heiq9/6OcKqAlvEuyfWXH5QGO0lI+oC8QGvsB475sVBP+AaLMb0zRJtI3+aBt65z
u/6d1fZXn6MH/mVykx/1pl92r7iBhM5nvKQE+oxSWjXgf3OA6Yy8bqyZkLYiv3UU
GNnanvkG0KuCMlOdB3e7jqDl2rUWFr2hVrKdFYaPZ/bVFY8/9Wqsiyp3GiHAwuXy
tqDFZidE1JeWmYvaOjpX3tfKdufGxDJfWOG1icFw+20dP6LMec6BywJY+bzSl+RF
TPfrYE1HPhcE6iJBe8+2YV3Qm3v9Yzv1Foskm0t2ahpg2JJ3kuJN1/0EgmumAgYC
iqpf4OzBxCXGyI9RshRB3dBoEDgKuafvnLnXC1S5JA72Z1+L95RcHQFaYk3r+x5H
1hCVXc2BPvTTDqRAy93bYM8uZQxUQrdOF+6kg9gUxQIDAQABo4HbMIHYMAkGA1Ud
EwQCMAAwCwYDVR0PBAQDAgeAMB0GA1UdJQQWMBQGCCsGAQUFBwMCBggrBgEFBQcD
ATAsBglghkgBhvhCAQ0EHxYdT3BlblNTTCBHZW5lcmF0ZWQgQ2VydGlmaWNhdGUw
HQYDVR0OBBYEFDZb7rxqkJJemzvA01StpKfIpGJPMB8GA1UdIwQYMBaAFOHDkFAc
QMcvERnj8GBWR8BGhZFiMDEGA1UdHwQqMCgwJqAkoCKGIGh0dHA6Ly8xOTIuMTY4
LjIxLjg5L3Jvb3RjcmwucGVtMA0GCSqGSIb3DQEBBQUAA4ICAQADrSUCTT7H4AUF
V0zLhdBlZdsPKNu6I5W5TOEVVo0lsKBf9nuWBxdQyZrpu8ilSbo0RuC7q+7rG+gt
SUphjKkLaw/BR3DvNqkdx2MnvJqaaGhiNpqBQSJi/QK2RQoC4uT2WMMTtAHcOrPE
KfH5dRJVOZYfmwkXW9YAGH3solvycVM1OwyWcBofHuAYKyeifsFiI/nbUnQgPKGx
0moFGrvvOD/ETE9WXH9dHstK8FKT1A0mRP0GZ69LkE8nCU/I0Ml2AJnsomGZDyc3
HXnVSswoDTFR4rK3ZHObMJEj1s4g1ojjKk4h6JilFXf1YGQBUmUB7n/Q0aAdby/N
EV1r+VMtULlji3MRtcsp39Ozp422ZhBpGalcP42vM30pEq7BTYOH4m/h5zzrrpmn
a2kaMuyeDRsEu+dOFdOPoj2eCye9rvorvshNBAkiay8W41pFEdNbYLAJMgZTAUL1
Ebgy8FibJu2cYWLQkjPJ9r8FSH2XYwmLLkCeDKl4PfUp2TisgnaIS305tVCZnJlL
Fc9LUozKyOyRg82T8tdcHx/aHqRtUq/fhgcydGefuDRPIJs/nH49qabjpIZQNShX
E2U7HDIGwZUtnjHVZsID9RHg3aHSEBNRO54qzojRPSL7W/pc3Nh07o+NCV/u0Z7+
j4hMxxMUFN57lk+3Oef8ZqaRm+8jDA==
-----END CERTIFICATE-----
