Certificate:
    Data:
        Version: 3 (0x2)
        Serial Number: 6 (0x6)
        Signature Algorithm: sha1WithRSAEncryption
        Issuer: C=BA, ST=RS, L=Banja Luka, O=Elektrotehnicki fakultet, OU=ETF, CN=CA_tijelo/emailAddress=ca@mail.com
        Validity
            Not Before: Jan 22 10:31:48 2024 GMT
            Not After : Jan 21 10:31:48 2025 GMT
        Subject: C=BA, ST=RS, O=LK, OU=LK, CN=janko/emailAddress=janko
        Subject Public Key Info:
            Public Key Algorithm: rsaEncryption
                RSA Public-Key: (4096 bit)
                Modulus:
                    00:c1:20:2f:79:8a:46:97:3e:46:96:c3:74:6a:78:
                    e8:60:04:fc:7a:06:ba:e3:e2:cc:81:6e:c9:a6:61:
                    b8:c5:76:2b:f7:c7:e1:c8:b0:ec:0c:00:b8:06:1b:
                    d5:7a:d6:37:d7:64:75:61:e2:39:0c:d8:04:94:3a:
                    b6:a2:2d:45:e8:e0:bd:c2:da:f8:df:e0:fd:f4:dc:
                    8a:5a:3b:d9:3b:52:9d:38:41:04:06:2a:41:4b:5e:
                    2e:0b:05:c1:11:09:f4:f1:e0:72:b1:73:04:22:41:
                    a1:fa:6f:56:f6:16:fc:af:ee:23:6a:92:51:1b:19:
                    9d:12:f6:b0:53:76:2b:0e:f1:07:b7:f3:b7:5e:7f:
                    f1:c7:f2:26:0f:bb:28:e9:cc:e0:ec:1d:54:3a:ff:
                    e6:50:62:4b:b8:b3:b0:62:2a:ef:93:fa:db:9a:3c:
                    e6:f1:2d:ce:e3:2f:96:5f:af:1d:de:29:90:fb:56:
                    2a:5f:e8:82:17:1e:a9:77:84:06:57:4a:4f:d3:bd:
                    62:7e:f1:5a:37:f5:45:ad:8e:fa:cb:7b:97:94:1d:
                    eb:f6:cd:b7:a2:dd:c2:7f:c1:f8:0a:f8:dd:04:7d:
                    8a:52:6c:34:3b:44:4e:b5:24:df:5a:ad:9b:4d:45:
                    13:11:12:a4:d6:49:03:31:12:7a:b7:5d:66:7e:06:
                    13:6f:d4:09:9d:44:94:71:80:cf:b8:aa:e2:b4:38:
                    57:92:68:09:92:90:4c:b1:26:19:c0:27:bd:24:1d:
                    bc:60:b6:68:22:ce:a0:d7:79:18:f6:84:53:f6:93:
                    4b:77:6a:0c:90:76:05:65:09:d0:f8:99:1f:69:bf:
                    a5:83:c5:17:2d:24:31:ea:0f:9f:6f:22:1a:ec:a3:
                    0a:90:0a:04:5e:c2:df:18:52:ff:4f:36:f9:93:b6:
                    4a:62:96:d2:a4:e9:93:5c:e3:f9:53:36:df:34:16:
                    d3:fb:10:71:35:ad:ae:b0:84:bb:67:8d:5a:d6:65:
                    77:d2:c2:b0:eb:5d:89:19:c1:bb:db:8a:88:58:0c:
                    61:af:f1:ed:83:3d:f6:f7:d8:cd:fc:5e:30:7e:d9:
                    aa:44:96:a7:58:12:8d:8f:df:9c:d3:97:b7:5f:dc:
                    25:34:45:93:8d:2f:16:eb:87:b1:86:dc:17:ba:93:
                    e1:86:3b:88:c3:df:3f:8a:5b:cb:c0:72:1c:6b:ed:
                    4b:6f:bf:c6:f8:62:91:0f:47:82:9d:cb:39:86:f4:
                    66:7b:ad:1e:de:e7:a1:df:65:9d:1f:7e:bd:2e:c5:
                    f8:1f:16:0c:89:93:ae:23:45:00:3c:4e:44:ed:12:
                    5d:ec:f4:55:01:5e:03:92:8c:85:21:a0:f3:ac:96:
                    99:17:73
                Exponent: 65537 (0x10001)
        X509v3 extensions:
            X509v3 Basic Constraints: 
                CA:FALSE
            X509v3 Key Usage: 
                Digital Signature
            X509v3 Extended Key Usage: 
                TLS Web Client Authentication, TLS Web Server Authentication
            Netscape Comment: 
                OpenSSL Generated Certificate
            X509v3 Subject Key Identifier: 
                3D:D5:3F:01:F0:C6:3F:70:EE:B6:F4:A5:25:ED:F5:06:65:00:72:AA
            X509v3 Authority Key Identifier: 
                keyid:E1:C3:90:50:1C:40:C7:2F:11:19:E3:F0:60:56:47:C0:46:85:91:62

            X509v3 CRL Distribution Points: 

                Full Name:
                  URI:http://192.168.21.89/rootcrl.pem

    Signature Algorithm: sha1WithRSAEncryption
         a3:a8:4e:ea:10:01:cd:fb:2d:b2:79:1c:d2:ca:fb:7a:aa:15:
         b1:f5:3b:f2:cc:11:f7:64:47:67:81:dc:42:c8:ec:94:fa:17:
         a3:33:89:51:53:73:60:72:8c:3f:dc:91:6d:14:08:11:9f:ce:
         f2:90:2a:86:18:38:cc:dc:7e:bb:92:98:cb:fc:f7:b2:7b:c9:
         a0:97:b1:23:63:28:61:57:ed:d3:65:87:b4:cf:07:c1:eb:95:
         e7:b2:47:6f:00:5e:56:da:ef:bb:fa:6d:6a:a4:7a:97:8b:1c:
         ab:fc:6a:b8:0d:93:2e:39:75:68:65:1e:29:ee:b6:eb:fe:b8:
         7d:1b:9d:08:f6:d9:d3:e6:f4:21:01:0e:7a:0a:ad:d5:a2:ba:
         7b:92:e1:15:f5:5b:e9:b9:bc:91:d1:63:3b:6c:de:43:43:76:
         48:74:49:90:bc:fa:e0:5e:8e:ef:4a:ac:4c:1b:61:b1:ab:1f:
         ff:3b:ff:bd:a6:ca:fa:7c:c0:c6:b4:d8:a1:1b:8a:42:bd:88:
         c7:5f:bb:7a:aa:7e:04:77:fc:a8:01:4f:f9:f1:5d:04:97:e1:
         26:ca:a4:2a:9e:d6:a5:98:e9:c3:bb:78:d3:db:24:e1:f6:e7:
         69:f7:b2:66:c2:a4:92:77:66:28:aa:c1:b4:5f:3e:f9:fc:a2:
         d0:19:8c:64:d2:0c:9c:43:b0:52:96:e5:29:e9:1c:f3:48:ad:
         38:bd:e0:0e:66:3d:8e:50:a1:9f:64:33:f8:c0:d1:1c:f1:f6:
         57:4e:3a:c1:55:ba:db:2d:7c:37:7c:6b:e7:bb:19:da:0f:7f:
         19:f4:27:de:b6:53:48:fe:90:85:81:6d:08:85:1e:e1:b7:28:
         ac:c6:17:a2:76:85:19:a1:db:05:5f:61:56:5f:b9:3f:d6:12:
         60:b7:f8:ff:22:1a:56:5f:43:bd:d4:c0:d8:e4:cc:11:ca:9a:
         b3:49:bc:40:2f:12:47:37:6b:63:f0:c6:f3:72:e3:3c:5f:53:
         91:a9:5f:68:e8:ea:59:a3:88:c4:60:8c:cd:d4:03:21:8b:64:
         eb:a3:27:b1:a5:c2:66:21:41:1c:c6:49:91:fa:f2:df:91:54:
         5e:b4:2d:d9:ec:51:ef:84:de:0e:39:85:64:1c:bb:ea:a2:ff:
         55:ab:24:94:1e:7b:9c:3b:9d:53:0c:28:29:db:b3:c2:8d:99:
         e9:bb:f2:eb:6e:72:43:61:a0:fb:f6:3b:44:07:a3:da:51:2f:
         f2:87:30:06:fe:71:85:12:ed:81:b5:c3:3e:bd:c5:0d:32:5d:
         d0:bd:da:43:2c:93:5c:22:e0:a7:37:7b:0a:ae:cc:45:3b:31:
         ad:dd:0c:2e:aa:40:45:87
-----BEGIN CERTIFICATE-----
MIIGQjCCBCqgAwIBAgIBBjANBgkqhkiG9w0BAQUFADCBkDELMAkGA1UEBhMCQkEx
CzAJBgNVBAgTAlJTMRMwEQYDVQQHEwpCYW5qYSBMdWthMSEwHwYDVQQKExhFbGVr
dHJvdGVobmlja2kgZmFrdWx0ZXQxDDAKBgNVBAsTA0VURjESMBAGA1UEAxQJQ0Ff
dGlqZWxvMRowGAYJKoZIhvcNAQkBFgtjYUBtYWlsLmNvbTAeFw0yNDAxMjIxMDMx
NDhaFw0yNTAxMjExMDMxNDhaMFoxCzAJBgNVBAYTAkJBMQswCQYDVQQIEwJSUzEL
MAkGA1UEChMCTEsxCzAJBgNVBAsTAkxLMQ4wDAYDVQQDEwVqYW5rbzEUMBIGCSqG
SIb3DQEJARYFamFua28wggIiMA0GCSqGSIb3DQEBAQUAA4ICDwAwggIKAoICAQDB
IC95ikaXPkaWw3RqeOhgBPx6Brrj4syBbsmmYbjFdiv3x+HIsOwMALgGG9V61jfX
ZHVh4jkM2ASUOraiLUXo4L3C2vjf4P303IpaO9k7Up04QQQGKkFLXi4LBcERCfTx
4HKxcwQiQaH6b1b2Fvyv7iNqklEbGZ0S9rBTdisO8Qe387def/HH8iYPuyjpzODs
HVQ6/+ZQYku4s7BiKu+T+tuaPObxLc7jL5Zfrx3eKZD7Vipf6IIXHql3hAZXSk/T
vWJ+8Vo39UWtjvrLe5eUHev2zbei3cJ/wfgK+N0EfYpSbDQ7RE61JN9arZtNRRMR
EqTWSQMxEnq3XWZ+BhNv1AmdRJRxgM+4quK0OFeSaAmSkEyxJhnAJ70kHbxgtmgi
zqDXeRj2hFP2k0t3agyQdgVlCdD4mR9pv6WDxRctJDHqD59vIhrsowqQCgRewt8Y
Uv9PNvmTtkpiltKk6ZNc4/lTNt80FtP7EHE1ra6whLtnjVrWZXfSwrDrXYkZwbvb
iohYDGGv8e2DPfb32M38XjB+2apElqdYEo2P35zTl7df3CU0RZONLxbrh7GG3Be6
k+GGO4jD3z+KW8vAchxr7Utvv8b4YpEPR4KdyzmG9GZ7rR7e56HfZZ0ffr0uxfgf
FgyJk64jRQA8TkTtEl3s9FUBXgOSjIUhoPOslpkXcwIDAQABo4HbMIHYMAkGA1Ud
EwQCMAAwCwYDVR0PBAQDAgeAMB0GA1UdJQQWMBQGCCsGAQUFBwMCBggrBgEFBQcD
ATAsBglghkgBhvhCAQ0EHxYdT3BlblNTTCBHZW5lcmF0ZWQgQ2VydGlmaWNhdGUw
HQYDVR0OBBYEFD3VPwHwxj9w7rb0pSXt9QZlAHKqMB8GA1UdIwQYMBaAFOHDkFAc
QMcvERnj8GBWR8BGhZFiMDEGA1UdHwQqMCgwJqAkoCKGIGh0dHA6Ly8xOTIuMTY4
LjIxLjg5L3Jvb3RjcmwucGVtMA0GCSqGSIb3DQEBBQUAA4ICAQCjqE7qEAHN+y2y
eRzSyvt6qhWx9TvyzBH3ZEdngdxCyOyU+hejM4lRU3Ngcow/3JFtFAgRn87ykCqG
GDjM3H67kpjL/Peye8mgl7EjYyhhV+3TZYe0zwfB65XnskdvAF5W2u+7+m1qpHqX
ixyr/Gq4DZMuOXVoZR4p7rbr/rh9G50I9tnT5vQhAQ56Cq3Vorp7kuEV9VvpubyR
0WM7bN5DQ3ZIdEmQvPrgXo7vSqxMG2Gxqx//O/+9psr6fMDGtNihG4pCvYjHX7t6
qn4Ed/yoAU/58V0El+EmyqQqntalmOnDu3jT2yTh9udp97JmwqSSd2YoqsG0Xz75
/KLQGYxk0gycQ7BSluUp6RzzSK04veAOZj2OUKGfZDP4wNEc8fZXTjrBVbrbLXw3
fGvnuxnaD38Z9CfetlNI/pCFgW0IhR7htyisxheidoUZodsFX2FWX7k/1hJgt/j/
IhpWX0O91MDY5MwRypqzSbxALxJHN2tj8MbzcuM8X1ORqV9o6OpZo4jEYIzN1AMh
i2TroyexpcJmIUEcxkmR+vLfkVRetC3Z7FHvhN4OOYVkHLvqov9VqySUHnucO51T
DCgp27PCjZnpu/LrbnJDYaD79jtEB6PaUS/yhzAG/nGFEu2BtcM+vcUNMl3QvdpD
LJNcIuCnN3sKrsxFOzGt3QwuqkBFhw==
-----END CERTIFICATE-----
