Certificate:
    Data:
        Version: 3 (0x2)
        Serial Number: 10 (0xa)
        Signature Algorithm: sha1WithRSAEncryption
        Issuer: C=BA, ST=RS, L=Banja Luka, O=Elektrotehnicki fakultet, OU=ETF, CN=CA_tijelo/emailAddress=ca@mail.com
        Validity
            Not Before: Jan 22 14:11:19 2024 GMT
            Not After : Jan 21 14:11:19 2025 GMT
        Subject: C=BA, ST=kris, O=kris, OU=kris, CN=kris/emailAddress=kris
        Subject Public Key Info:
            Public Key Algorithm: rsaEncryption
                RSA Public-Key: (4096 bit)
                Modulus:
                    00:cf:5e:29:8e:61:cd:1e:7b:32:d0:32:66:90:64:
                    5f:fc:1f:59:78:8c:33:45:ab:4f:b1:ed:14:06:41:
                    c9:c0:1b:a5:5c:9a:81:b2:35:41:2e:c1:f3:a3:7f:
                    26:11:68:92:6c:1c:97:26:42:8e:2c:60:ee:02:74:
                    d8:ec:89:df:9b:51:4a:28:5a:43:34:ca:5c:a3:c3:
                    39:41:ed:6c:67:96:9c:c6:07:c0:03:0b:d9:b9:e1:
                    68:f1:ed:3f:f9:a5:af:60:51:52:88:90:7c:f3:00:
                    1c:85:3f:35:d4:b2:3e:28:a0:b3:c4:e4:17:a2:6f:
                    24:d3:6e:ba:41:ca:9d:dc:43:01:18:fb:0e:65:c5:
                    8b:d6:11:c7:e7:56:17:ae:4a:06:7d:f7:fa:19:56:
                    4e:9a:c2:4d:db:e9:17:0c:be:7d:3c:8d:c5:be:8f:
                    63:84:08:85:77:e5:76:78:7f:80:84:09:1d:b5:16:
                    75:bd:b2:69:9b:cf:79:c6:b7:d9:2e:ba:a9:dd:48:
                    d5:43:30:83:08:57:83:6a:9f:4c:c5:0d:4f:f5:9d:
                    66:24:7d:27:39:1c:3b:54:35:c2:34:30:f8:d5:6f:
                    7a:b3:02:d6:cf:67:d4:d4:36:5d:b9:31:19:7e:d6:
                    97:0a:a1:7c:37:7d:4f:60:2e:c6:7f:c8:4d:9f:0c:
                    fd:76:a7:69:cf:48:0b:de:d9:ee:22:07:6d:78:ee:
                    cd:fd:43:be:4c:a3:83:69:86:7e:88:8b:31:4e:a2:
                    8c:7c:04:79:b7:5a:b5:19:0e:88:f9:0d:d5:11:1c:
                    eb:16:9d:14:f9:d3:72:42:62:59:10:d9:62:9f:09:
                    74:d9:18:2b:c2:58:00:99:40:d9:8f:97:19:5b:de:
                    d7:05:d9:93:8f:39:7a:b8:18:75:06:6e:1d:01:5b:
                    1a:ba:50:fc:f1:1f:3c:bb:2f:45:3b:d2:b0:80:03:
                    f5:20:38:a1:6d:1f:f9:0e:4b:57:61:95:14:0d:10:
                    4f:25:c9:6c:e3:63:75:8d:91:57:cb:9d:2a:68:47:
                    a7:71:e0:fc:68:e4:81:61:f0:b0:c6:e4:20:f0:e3:
                    48:47:7f:25:94:10:c5:83:35:eb:ee:1e:4d:ab:7c:
                    bf:d1:90:05:a1:33:6e:64:b0:e1:ea:e8:78:62:0b:
                    a3:e1:e3:5b:32:23:e7:7f:d4:45:f8:18:8a:83:24:
                    b7:78:08:16:38:d5:cc:91:be:1c:2a:25:90:e9:bf:
                    af:da:cb:d6:6e:7e:6f:cc:4b:ea:3a:22:9e:ea:50:
                    4d:bc:4c:ae:cf:3f:9c:60:6b:81:6e:5a:34:8e:8b:
                    07:ed:78:0f:d0:54:05:1c:dc:0f:db:50:64:bb:56:
                    0d:fe:bf
                Exponent: 65537 (0x10001)
        X509v3 extensions:
            X509v3 Basic Constraints: 
                CA:FALSE
            X509v3 Key Usage: 
                Digital Signature
            X509v3 Extended Key Usage: 
                TLS Web Client Authentication, TLS Web Server Authentication
            Netscape Comment: 
                OpenSSL Generated Certificate
            X509v3 Subject Key Identifier: 
                91:CB:84:E2:17:70:08:31:D3:03:D0:20:7A:E9:84:9A:55:DD:C1:B4
            X509v3 Authority Key Identifier: 
                keyid:E1:C3:90:50:1C:40:C7:2F:11:19:E3:F0:60:56:47:C0:46:85:91:62

            X509v3 CRL Distribution Points: 

                Full Name:
                  URI:http://192.168.21.89/rootcrl.pem

    Signature Algorithm: sha1WithRSAEncryption
         40:db:22:b4:ea:11:83:b1:23:9f:41:f3:36:38:9b:4b:66:4f:
         65:fb:4a:28:c3:87:4f:53:8c:19:59:89:87:3e:ef:6d:3c:78:
         92:bd:61:6d:8b:fc:cd:c9:cf:ec:ca:05:af:d3:ae:50:aa:69:
         d9:8f:da:4b:36:ce:96:e8:6b:b1:12:88:71:95:30:6e:3e:39:
         ae:e8:d9:5c:82:14:58:69:84:fb:9e:1d:3a:9d:29:98:10:db:
         61:67:f3:95:f6:a8:9d:bf:5e:13:06:4e:83:b2:33:03:6d:37:
         78:4e:0e:5e:fb:e8:b2:0b:6e:cf:de:bf:3f:83:80:7d:6d:4c:
         71:a0:22:1f:ac:12:fd:a6:15:b5:43:65:ae:a1:f6:87:8a:e7:
         9f:99:3e:ef:6c:9e:d8:d2:7d:92:f6:49:14:b7:2c:93:78:ed:
         49:e0:1b:de:03:34:e6:0f:98:1f:ca:4d:85:80:ef:f3:c1:43:
         de:b7:54:f5:fe:c3:0e:e4:f5:2d:53:24:50:23:fb:c3:90:16:
         3b:61:31:ef:ca:a8:b7:be:9c:be:82:be:13:5f:66:54:2b:83:
         85:8b:1d:6c:b2:0e:30:69:e0:ab:27:1b:d1:d1:43:0c:ca:e4:
         d8:60:d5:80:aa:21:4a:17:24:46:7f:a6:30:20:73:ac:b9:ac:
         3f:a7:d4:e2:7a:3a:0a:d2:02:42:88:36:bf:71:5b:ae:c5:e4:
         eb:42:67:4c:bb:c2:2b:a3:91:a2:ab:d1:43:c8:17:55:d4:e1:
         86:d1:cb:66:c1:96:79:56:86:5e:30:31:7d:74:bb:3f:33:03:
         31:79:c8:c3:f5:0d:87:95:69:f6:de:ab:57:d4:41:b8:77:e0:
         51:b8:d0:9b:c6:e8:d0:cd:b0:83:45:39:1a:ee:ab:aa:fd:1c:
         fd:a4:5c:a2:9d:00:f0:91:82:90:b9:66:59:59:d0:3b:8d:28:
         34:60:a6:61:e6:18:0a:91:2e:b5:07:6d:5a:5f:15:65:fd:39:
         4b:d1:18:ca:8b:4b:e1:d9:1a:9e:af:b1:35:e5:76:77:c7:f8:
         71:d8:a8:1e:8f:44:7e:81:d1:d7:10:d1:d0:27:36:f3:e2:58:
         b6:a1:19:d8:cf:87:49:6f:3f:23:2c:9f:14:ff:2b:1c:41:0b:
         fb:1d:4e:cd:7a:1c:50:27:85:36:51:68:31:26:71:41:0f:7c:
         ce:83:07:27:88:58:9a:b9:c5:51:9a:8c:4a:a7:1e:57:6a:01:
         73:6e:77:2d:33:b8:d6:7a:43:4a:33:12:de:e9:82:c8:de:3e:
         f6:7d:20:15:6e:66:9e:30:dc:2f:c7:8e:c8:5f:4a:9d:e7:7a:
         1d:33:c9:3f:ab:4c:38:95
-----BEGIN CERTIFICATE-----
MIIGRjCCBC6gAwIBAgIBCjANBgkqhkiG9w0BAQUFADCBkDELMAkGA1UEBhMCQkEx
CzAJBgNVBAgTAlJTMRMwEQYDVQQHEwpCYW5qYSBMdWthMSEwHwYDVQQKExhFbGVr
dHJvdGVobmlja2kgZmFrdWx0ZXQxDDAKBgNVBAsTA0VURjESMBAGA1UEAxQJQ0Ff
dGlqZWxvMRowGAYJKoZIhvcNAQkBFgtjYUBtYWlsLmNvbTAeFw0yNDAxMjIxNDEx
MTlaFw0yNTAxMjExNDExMTlaMF4xCzAJBgNVBAYTAkJBMQ0wCwYDVQQIEwRrcmlz
MQ0wCwYDVQQKEwRrcmlzMQ0wCwYDVQQLEwRrcmlzMQ0wCwYDVQQDEwRrcmlzMRMw
EQYJKoZIhvcNAQkBFgRrcmlzMIICIjANBgkqhkiG9w0BAQEFAAOCAg8AMIICCgKC
AgEAz14pjmHNHnsy0DJmkGRf/B9ZeIwzRatPse0UBkHJwBulXJqBsjVBLsHzo38m
EWiSbByXJkKOLGDuAnTY7Infm1FKKFpDNMpco8M5Qe1sZ5acxgfAAwvZueFo8e0/
+aWvYFFSiJB88wAchT811LI+KKCzxOQXom8k0266Qcqd3EMBGPsOZcWL1hHH51YX
rkoGfff6GVZOmsJN2+kXDL59PI3Fvo9jhAiFd+V2eH+AhAkdtRZ1vbJpm895xrfZ
Lrqp3UjVQzCDCFeDap9MxQ1P9Z1mJH0nORw7VDXCNDD41W96swLWz2fU1DZduTEZ
ftaXCqF8N31PYC7Gf8hNnwz9dqdpz0gL3tnuIgdteO7N/UO+TKODaYZ+iIsxTqKM
fAR5t1q1GQ6I+Q3VERzrFp0U+dNyQmJZENlinwl02RgrwlgAmUDZj5cZW97XBdmT
jzl6uBh1Bm4dAVsaulD88R88uy9FO9KwgAP1IDihbR/5DktXYZUUDRBPJcls42N1
jZFXy50qaEenceD8aOSBYfCwxuQg8ONIR38llBDFgzXr7h5Nq3y/0ZAFoTNuZLDh
6uh4Yguj4eNbMiPnf9RF+BiKgyS3eAgWONXMkb4cKiWQ6b+v2svWbn5vzEvqOiKe
6lBNvEyuzz+cYGuBblo0josH7XgP0FQFHNwP21Bku1YN/r8CAwEAAaOB2zCB2DAJ
BgNVHRMEAjAAMAsGA1UdDwQEAwIHgDAdBgNVHSUEFjAUBggrBgEFBQcDAgYIKwYB
BQUHAwEwLAYJYIZIAYb4QgENBB8WHU9wZW5TU0wgR2VuZXJhdGVkIENlcnRpZmlj
YXRlMB0GA1UdDgQWBBSRy4TiF3AIMdMD0CB66YSaVd3BtDAfBgNVHSMEGDAWgBTh
w5BQHEDHLxEZ4/BgVkfARoWRYjAxBgNVHR8EKjAoMCagJKAihiBodHRwOi8vMTky
LjE2OC4yMS44OS9yb290Y3JsLnBlbTANBgkqhkiG9w0BAQUFAAOCAgEAQNsitOoR
g7Ejn0HzNjibS2ZPZftKKMOHT1OMGVmJhz7vbTx4kr1hbYv8zcnP7MoFr9OuUKpp
2Y/aSzbOluhrsRKIcZUwbj45rujZXIIUWGmE+54dOp0pmBDbYWfzlfaonb9eEwZO
g7IzA203eE4OXvvosgtuz96/P4OAfW1McaAiH6wS/aYVtUNlrqH2h4rnn5k+72ye
2NJ9kvZJFLcsk3jtSeAb3gM05g+YH8pNhYDv88FD3rdU9f7DDuT1LVMkUCP7w5AW
O2Ex78qot76cvoK+E19mVCuDhYsdbLIOMGngqycb0dFDDMrk2GDVgKohShckRn+m
MCBzrLmsP6fU4no6CtICQog2v3FbrsXk60JnTLvCK6ORoqvRQ8gXVdThhtHLZsGW
eVaGXjAxfXS7PzMDMXnIw/UNh5Vp9t6rV9RBuHfgUbjQm8bo0M2wg0U5Gu6rqv0c
/aRcop0A8JGCkLlmWVnQO40oNGCmYeYYCpEutQdtWl8VZf05S9EYyotL4dkanq+x
NeV2d8f4cdioHo9EfoHR1xDR0Cc28+JYtqEZ2M+HSW8/IyyfFP8rHEEL+x1OzXoc
UCeFNlFoMSZxQQ98zoMHJ4hYmrnFUZqMSqceV2oBc253LTO41npDSjMS3umCyN4+
9n0gFW5mnjDcL8eOyF9Kned6HTPJP6tMOJU=
-----END CERTIFICATE-----
