Certificate:
    Data:
        Version: 3 (0x2)
        Serial Number: 21 (0x15)
        Signature Algorithm: sha1WithRSAEncryption
        Issuer: C=BA, ST=RS, L=Banja Luka, O=Elektrotehnicki fakultet, OU=ETF, CN=CA_tijelo/emailAddress=ca@mail.com
        Validity
            Not Before: Jan 23 00:17:03 2024 GMT
            Not After : Jan 22 00:17:03 2025 GMT
        Subject: C=MA, ST=MA, O=M, OU=AM, CN=MA/emailAddress=MA
        Subject Public Key Info:
            Public Key Algorithm: rsaEncryption
                RSA Public-Key: (4096 bit)
                Modulus:
                    00:a6:74:2d:2f:ed:c7:57:9d:7b:95:70:6c:76:8a:
                    a7:e9:ef:e7:db:ff:2b:36:1b:b5:bf:d8:e0:35:6f:
                    9c:07:ba:2a:74:66:c2:6e:73:89:8b:f1:c9:f1:fe:
                    9a:0f:5e:ae:68:58:c1:9f:7e:50:4a:8e:33:60:26:
                    97:63:0f:43:74:fc:b7:77:cc:9f:38:e8:88:18:fb:
                    4d:1e:05:8d:cc:b6:d7:da:ce:71:ad:97:3f:17:21:
                    61:00:2a:57:b1:c9:6d:24:b0:b8:fd:c9:5d:a3:9a:
                    ea:c2:cc:ac:21:c3:62:2f:eb:2f:df:a3:b0:a2:c1:
                    72:18:f9:90:01:67:37:4d:17:04:b6:82:ef:2c:99:
                    e3:20:ac:4d:0c:21:b2:88:cc:68:55:d4:7a:a0:84:
                    b2:a0:97:3f:3a:d1:88:db:d6:8d:73:2a:2c:8d:ce:
                    b7:a1:23:5d:79:b0:ba:db:67:0d:d8:92:34:76:80:
                    29:60:9e:45:06:8c:93:1f:22:bd:ae:91:b7:40:35:
                    47:f9:6b:1b:00:b6:8e:31:08:30:23:cf:7b:b8:88:
                    21:ef:4e:68:59:d0:21:1e:ae:e6:0b:a3:3f:f1:a4:
                    8d:4b:6c:49:1a:96:2c:9f:08:60:bb:a1:61:0e:53:
                    ce:fb:31:07:76:34:0b:35:64:61:85:25:7f:f2:d4:
                    12:2e:4e:c2:85:57:2a:5a:78:c3:5d:fd:7b:27:93:
                    c8:d1:86:b5:92:12:81:45:ea:da:8e:ae:14:44:68:
                    42:2e:cc:d7:9a:d5:2a:b1:10:23:8d:bd:53:b8:89:
                    6e:f2:8d:19:ce:49:f9:49:d8:fd:a2:e9:91:c0:7a:
                    3a:a0:cf:86:62:b3:9c:5d:33:c4:87:6d:16:b8:81:
                    c6:b2:89:7f:bc:9f:5d:29:b5:bc:b1:20:d9:8f:da:
                    32:73:4c:a4:8c:59:32:da:04:ae:9d:d0:f9:68:96:
                    08:7d:c2:47:c2:1e:3b:18:a8:ea:43:3d:46:39:cb:
                    76:62:2d:24:c7:47:3a:e5:42:c7:9b:07:db:3b:95:
                    29:af:e1:f7:a5:01:fd:28:3a:31:ab:e1:35:35:f3:
                    e8:21:ce:ac:f2:d1:1f:d8:3b:f5:34:1e:92:55:7b:
                    20:55:ad:e9:7b:0b:20:ba:c3:aa:d8:52:f2:1e:62:
                    53:fb:9b:d4:8b:2d:06:bb:e6:7f:10:b1:51:3c:bc:
                    19:37:66:b8:39:66:d3:b8:8f:64:8d:b7:38:d1:97:
                    81:eb:bc:4b:9a:6b:9c:ce:a4:11:42:06:e4:1e:2a:
                    a2:cc:f4:17:b9:e7:32:ce:fc:93:dc:ee:4f:53:e1:
                    52:8c:9b:f1:39:1e:19:63:8c:ac:be:2b:37:f8:35:
                    a2:eb:71
                Exponent: 65537 (0x10001)
        X509v3 extensions:
            X509v3 Basic Constraints: 
                CA:FALSE
            X509v3 Key Usage: 
                Digital Signature
            X509v3 Extended Key Usage: 
                TLS Web Client Authentication, TLS Web Server Authentication
            Netscape Comment: 
                OpenSSL Generated Certificate
            X509v3 Subject Key Identifier: 
                62:14:E6:FD:5C:F4:40:E4:FE:8B:65:36:4F:BA:B7:5F:77:7B:6D:85
            X509v3 Authority Key Identifier: 
                keyid:E1:C3:90:50:1C:40:C7:2F:11:19:E3:F0:60:56:47:C0:46:85:91:62

            X509v3 CRL Distribution Points: 

                Full Name:
                  URI:http://192.168.21.89/rootcrl.pem

    Signature Algorithm: sha1WithRSAEncryption
         4e:e3:b9:e1:97:62:51:a5:ed:8a:97:57:66:d0:8c:26:7e:52:
         92:1b:8d:0b:47:48:65:c3:f9:1f:9d:cb:a2:aa:87:f0:41:c9:
         e5:5c:05:12:36:f5:ae:f7:5c:98:5d:18:40:53:50:11:44:32:
         29:4e:bb:c2:81:ba:be:df:b8:37:dd:01:13:cc:a6:d5:66:90:
         81:11:ed:32:93:9a:38:58:e8:12:a9:3d:c0:73:28:94:af:a3:
         5a:f2:80:73:be:7a:fb:2d:e8:7a:b3:bb:45:6c:e4:87:2e:f2:
         3f:17:84:47:2e:f8:15:45:44:9e:3f:bb:73:09:ce:11:42:aa:
         b0:58:f2:78:06:64:c4:40:90:93:52:23:c8:8c:f0:29:31:e6:
         e9:7d:a4:f1:ad:6c:54:0f:c5:87:20:62:48:84:68:7f:83:94:
         b4:10:4c:9b:a8:33:b7:ed:98:a6:9c:15:b7:49:3f:75:8c:b0:
         ae:c8:ae:ca:e9:25:e7:18:54:05:74:79:53:97:7f:88:0e:f1:
         f9:6b:ee:a7:04:07:09:66:38:6c:db:8a:30:9f:83:91:1c:76:
         39:66:3d:90:8c:4c:cb:9b:fc:f7:76:95:fb:ae:67:83:bc:9e:
         c0:a2:69:e0:6c:9a:9f:28:15:72:6f:38:47:9f:87:1e:65:fc:
         e3:6c:d0:17:60:cf:06:d7:4d:03:62:6e:eb:a7:8d:3d:27:64:
         a4:55:65:44:57:52:1e:dc:d8:2f:9a:e7:31:8c:51:2b:f3:d5:
         ca:58:e7:49:5f:3f:a8:2f:e7:b5:2d:b3:98:a2:7c:14:24:ce:
         00:d2:01:4c:c4:98:94:76:ae:c6:f7:d2:46:74:7c:88:38:00:
         75:f5:9f:ed:29:cd:a1:ae:72:f3:f1:05:5c:55:0f:7d:8e:b6:
         e2:b9:bf:01:21:3d:30:e6:80:ee:08:53:e3:52:7a:31:f4:c0:
         87:89:33:65:00:9c:12:45:9c:af:ca:85:98:20:a5:e0:a3:49:
         00:ad:87:c5:e5:bc:c9:a6:84:58:bc:ba:95:a7:a7:1b:33:d1:
         c1:58:bc:39:78:ed:7f:85:61:27:ed:4b:88:a7:1b:ec:8e:4d:
         4e:d2:3e:e1:fd:d4:27:b4:63:e3:36:40:67:b4:a1:c1:ed:f1:
         2c:3a:18:fc:f5:52:16:67:48:07:49:56:bd:fa:70:15:2d:60:
         6c:bb:9d:55:62:c3:82:3b:11:64:7d:49:7a:f8:e5:e8:f0:d2:
         12:25:0f:5d:f1:42:76:5a:16:3d:f2:0a:0a:3e:1a:9e:1c:e9:
         e4:a9:31:83:56:75:77:4d:a1:1d:82:43:f9:eb:76:94:b1:bb:
         f7:4a:92:ac:43:fd:7d:88
-----BEGIN CERTIFICATE-----
MIIGOzCCBCOgAwIBAgIBFTANBgkqhkiG9w0BAQUFADCBkDELMAkGA1UEBhMCQkEx
CzAJBgNVBAgTAlJTMRMwEQYDVQQHEwpCYW5qYSBMdWthMSEwHwYDVQQKExhFbGVr
dHJvdGVobmlja2kgZmFrdWx0ZXQxDDAKBgNVBAsTA0VURjESMBAGA1UEAxQJQ0Ff
dGlqZWxvMRowGAYJKoZIhvcNAQkBFgtjYUBtYWlsLmNvbTAeFw0yNDAxMjMwMDE3
MDNaFw0yNTAxMjIwMDE3MDNaMFMxCzAJBgNVBAYTAk1BMQswCQYDVQQIEwJNQTEK
MAgGA1UEChMBTTELMAkGA1UECxMCQU0xCzAJBgNVBAMTAk1BMREwDwYJKoZIhvcN
AQkBFgJNQTCCAiIwDQYJKoZIhvcNAQEBBQADggIPADCCAgoCggIBAKZ0LS/tx1ed
e5VwbHaKp+nv59v/KzYbtb/Y4DVvnAe6KnRmwm5ziYvxyfH+mg9ermhYwZ9+UEqO
M2Aml2MPQ3T8t3fMnzjoiBj7TR4Fjcy219rOca2XPxchYQAqV7HJbSSwuP3JXaOa
6sLMrCHDYi/rL9+jsKLBchj5kAFnN00XBLaC7yyZ4yCsTQwhsojMaFXUeqCEsqCX
PzrRiNvWjXMqLI3Ot6EjXXmwuttnDdiSNHaAKWCeRQaMkx8iva6Rt0A1R/lrGwC2
jjEIMCPPe7iIIe9OaFnQIR6u5gujP/GkjUtsSRqWLJ8IYLuhYQ5TzvsxB3Y0CzVk
YYUlf/LUEi5OwoVXKlp4w139eyeTyNGGtZISgUXq2o6uFERoQi7M15rVKrEQI429
U7iJbvKNGc5J+UnY/aLpkcB6OqDPhmKznF0zxIdtFriBxrKJf7yfXSm1vLEg2Y/a
MnNMpIxZMtoErp3Q+WiWCH3CR8IeOxio6kM9RjnLdmItJMdHOuVCx5sH2zuVKa/h
96UB/Sg6MavhNTXz6CHOrPLRH9g79TQeklV7IFWt6XsLILrDqthS8h5iU/ub1Ist
BrvmfxCxUTy8GTdmuDlm07iPZI23ONGXgeu8S5prnM6kEUIG5B4qosz0F7nnMs78
k9zuT1PhUoyb8TkeGWOMrL4rN/g1outxAgMBAAGjgdswgdgwCQYDVR0TBAIwADAL
BgNVHQ8EBAMCB4AwHQYDVR0lBBYwFAYIKwYBBQUHAwIGCCsGAQUFBwMBMCwGCWCG
SAGG+EIBDQQfFh1PcGVuU1NMIEdlbmVyYXRlZCBDZXJ0aWZpY2F0ZTAdBgNVHQ4E
FgQUYhTm/Vz0QOT+i2U2T7q3X3d7bYUwHwYDVR0jBBgwFoAU4cOQUBxAxy8RGePw
YFZHwEaFkWIwMQYDVR0fBCowKDAmoCSgIoYgaHR0cDovLzE5Mi4xNjguMjEuODkv
cm9vdGNybC5wZW0wDQYJKoZIhvcNAQEFBQADggIBAE7jueGXYlGl7YqXV2bQjCZ+
UpIbjQtHSGXD+R+dy6Kqh/BByeVcBRI29a73XJhdGEBTUBFEMilOu8KBur7fuDfd
ARPMptVmkIER7TKTmjhY6BKpPcBzKJSvo1rygHO+evst6Hqzu0Vs5Icu8j8XhEcu
+BVFRJ4/u3MJzhFCqrBY8ngGZMRAkJNSI8iM8Ckx5ul9pPGtbFQPxYcgYkiEaH+D
lLQQTJuoM7ftmKacFbdJP3WMsK7IrsrpJecYVAV0eVOXf4gO8flr7qcEBwlmOGzb
ijCfg5EcdjlmPZCMTMub/Pd2lfuuZ4O8nsCiaeBsmp8oFXJvOEefhx5l/ONs0Bdg
zwbXTQNibuunjT0nZKRVZURXUh7c2C+a5zGMUSvz1cpY50lfP6gv57Uts5iifBQk
zgDSAUzEmJR2rsb30kZ0fIg4AHX1n+0pzaGucvPxBVxVD32OtuK5vwEhPTDmgO4I
U+NSejH0wIeJM2UAnBJFnK/KhZggpeCjSQCth8XlvMmmhFi8upWnpxsz0cFYvDl4
7X+FYSftS4inG+yOTU7SPuH91Ce0Y+M2QGe0ocHt8Sw6GPz1UhZnSAdJVr36cBUt
YGy7nVViw4I7EWR9SXr45ejw0hIlD13xQnZaFj3yCgo+Gp4c6eSpMYNWdXdNoR2C
Q/nrdpSxu/dKkqxD/X2I
-----END CERTIFICATE-----
