Certificate:
    Data:
        Version: 3 (0x2)
        Serial Number: 8 (0x8)
        Signature Algorithm: sha1WithRSAEncryption
        Issuer: C=BA, ST=RS, L=Banja Luka, O=Elektrotehnicki fakultet, OU=ETF, CN=CA_tijelo/emailAddress=ca@mail.com
        Validity
            Not Before: Jan 22 12:37:34 2024 GMT
            Not After : Jan 21 12:37:34 2025 GMT
        Subject: C=BA, ST=RS, O=LA, OU=LA, CN=marko/emailAddress=marko
        Subject Public Key Info:
            Public Key Algorithm: rsaEncryption
                RSA Public-Key: (4096 bit)
                Modulus:
                    00:c5:07:06:59:a1:96:e2:2e:bf:5e:eb:f8:9a:4a:
                    02:4c:3a:01:3f:43:2d:e1:3b:5c:49:92:57:e5:62:
                    f2:50:5a:2d:c7:c6:65:e8:72:78:14:7b:aa:c4:79:
                    b7:46:05:61:89:33:4d:6e:5c:40:b0:d8:fe:53:d6:
                    4a:1f:3b:bf:60:8e:1d:e6:1e:ac:c5:e4:3f:64:5d:
                    af:22:3e:95:1d:5f:e5:dc:1d:b8:94:a5:38:00:03:
                    34:b4:ad:2f:6b:3d:c4:d0:d9:b4:8f:47:64:6a:ba:
                    a9:4c:33:c2:b3:24:97:1c:8a:51:93:11:56:84:7e:
                    8b:4e:d8:66:b5:29:21:78:4d:30:d7:06:2d:9a:5f:
                    68:79:d0:ca:ef:de:28:3a:b0:f1:38:f5:e2:e0:06:
                    a7:86:ce:b9:cc:1e:a4:67:73:65:5a:f6:1b:95:4b:
                    90:35:55:04:c0:ca:94:56:93:75:39:d3:fc:e4:58:
                    6a:84:7d:61:0f:49:79:09:21:a3:3a:15:1f:4b:1b:
                    a7:45:dd:29:1d:e3:6e:dc:53:ec:59:65:6c:10:ad:
                    19:82:7b:6b:73:f7:db:2e:4e:db:d7:94:10:20:87:
                    1e:bc:03:21:6b:ec:51:17:b6:07:7b:c7:eb:d6:9c:
                    e0:74:6e:5d:60:88:10:45:97:15:81:c0:81:77:18:
                    86:d8:68:13:d2:89:d0:ac:81:05:04:bc:ad:cf:36:
                    8f:47:6d:6e:27:f4:02:89:50:10:6d:54:a6:29:7f:
                    c7:9c:b4:97:8d:77:7e:c8:fa:1e:52:85:6f:02:ce:
                    59:02:ed:59:fe:77:7a:0f:ac:39:fd:3c:0d:be:b4:
                    52:90:8e:fd:dd:68:d2:f0:67:2b:d3:ad:ab:1b:bb:
                    fb:40:f2:ee:63:70:1c:07:6d:59:48:83:87:89:4f:
                    5c:59:4a:9f:f6:43:e1:02:c2:67:5f:49:04:c8:91:
                    3f:7a:7e:ec:64:2d:5f:3b:59:e7:7e:1a:71:d6:0f:
                    a3:ac:1b:63:6d:1b:8e:9d:d1:b3:35:13:39:96:41:
                    64:58:e1:db:d7:17:a7:be:c7:63:0d:1e:65:56:7f:
                    7d:97:d1:26:5d:37:e7:da:f7:34:71:08:a8:f4:9e:
                    64:56:17:e3:e6:01:2d:b6:b3:a4:99:6e:bf:d1:ba:
                    5a:0b:ce:8f:db:ff:12:17:5b:02:3d:20:92:50:17:
                    ab:95:00:78:6d:fa:2f:6d:c6:00:01:ff:3d:1d:fe:
                    42:6d:aa:84:f8:c6:e5:0d:ef:a7:2a:94:d6:83:90:
                    d3:be:12:e4:5c:9a:5e:b9:7e:be:72:ef:0d:9d:1d:
                    67:b2:a9:b8:a9:67:fd:96:6c:ea:75:5e:7a:11:1e:
                    97:65:d9
                Exponent: 65537 (0x10001)
        X509v3 extensions:
            X509v3 Basic Constraints: 
                CA:FALSE
            X509v3 Key Usage: 
                Digital Signature
            X509v3 Extended Key Usage: 
                TLS Web Client Authentication, TLS Web Server Authentication
            Netscape Comment: 
                OpenSSL Generated Certificate
            X509v3 Subject Key Identifier: 
                EF:25:1B:9F:44:33:12:63:F7:03:09:35:41:95:A4:5A:8A:C2:7D:B5
            X509v3 Authority Key Identifier: 
                keyid:E1:C3:90:50:1C:40:C7:2F:11:19:E3:F0:60:56:47:C0:46:85:91:62

            X509v3 CRL Distribution Points: 

                Full Name:
                  URI:http://192.168.21.89/rootcrl.pem

    Signature Algorithm: sha1WithRSAEncryption
         07:89:4e:a5:60:4b:8d:43:9c:e1:b7:12:30:bc:89:cb:a7:f5:
         18:54:39:76:51:fd:b1:54:c5:14:fd:3f:94:73:cc:d8:1b:2c:
         a4:8d:44:d8:30:ff:7a:5f:e1:91:f3:79:28:7e:99:51:6f:c3:
         f4:76:f5:78:4e:75:4b:c1:53:f4:3d:19:27:7c:70:d9:7b:f2:
         47:9e:a9:fe:b6:dc:66:cc:79:ea:57:15:a5:af:97:28:bb:cf:
         c2:21:0c:b6:88:e2:4a:f7:86:18:d8:19:43:68:b3:52:4c:33:
         a9:5a:3c:77:51:79:f8:fc:76:eb:0b:1d:03:b8:a3:aa:47:f1:
         8a:7c:fa:1c:55:50:64:4c:db:94:85:ec:67:fd:28:e1:72:0f:
         44:85:8a:4e:94:24:b3:51:2c:b3:ca:be:4a:55:5f:38:eb:4c:
         50:06:27:12:8f:28:d4:c1:85:ad:8d:47:55:3f:10:0e:53:a6:
         19:e6:74:30:a2:e7:ec:93:21:cf:cf:02:dd:ae:e6:f8:fd:d7:
         3e:ce:9f:1c:e6:8d:ad:8c:fd:a0:f7:5e:6c:ff:0c:25:00:e2:
         cd:14:3b:54:29:67:45:78:db:b7:a9:60:68:a6:80:5e:17:52:
         5b:1b:20:59:81:5f:b7:63:b2:79:9c:4c:10:65:02:52:cb:de:
         bb:31:bc:9e:73:5b:32:a2:33:36:e2:46:a2:a3:fb:76:5e:fb:
         48:ba:ad:44:71:c2:51:86:b5:4b:12:32:a8:a0:3b:40:89:83:
         c6:80:0b:0f:00:51:1a:e8:e3:2f:12:d3:3d:97:4f:75:76:75:
         24:84:a1:9b:f2:fe:31:41:20:fd:13:2d:9f:c5:d9:de:32:5d:
         d8:91:f2:1d:a8:f6:ce:1e:48:8a:63:c2:5c:0e:d6:18:4f:29:
         c5:9e:7b:e4:9b:b9:d0:3b:a8:9b:97:b9:b4:87:84:e5:48:b5:
         b1:b5:10:51:41:e5:ed:03:5b:2d:b5:af:27:8b:d2:d7:3d:2c:
         9d:93:27:5e:6c:30:44:d8:32:a2:5a:94:d2:78:a7:26:db:2b:
         a1:09:55:66:e1:e4:9c:ac:00:73:a5:ea:d0:a4:70:60:05:49:
         e6:1f:08:50:51:b5:09:77:0e:73:1e:0d:56:42:c4:5e:6c:d2:
         cf:68:96:2b:e7:58:72:35:55:18:52:4b:ea:c5:6e:7e:a4:78:
         98:d6:d2:e3:88:19:d0:e6:51:bc:30:d4:4d:26:fd:61:69:bd:
         ae:a0:68:20:94:78:83:55:b8:bb:87:0b:1b:30:a6:f6:df:d8:
         75:cd:6d:bc:95:59:ce:f2:a2:92:4e:3c:27:3f:61:21:84:cf:
         20:8e:d3:86:e0:67:d6:a1
-----BEGIN CERTIFICATE-----
MIIGQjCCBCqgAwIBAgIBCDANBgkqhkiG9w0BAQUFADCBkDELMAkGA1UEBhMCQkEx
CzAJBgNVBAgTAlJTMRMwEQYDVQQHEwpCYW5qYSBMdWthMSEwHwYDVQQKExhFbGVr
dHJvdGVobmlja2kgZmFrdWx0ZXQxDDAKBgNVBAsTA0VURjESMBAGA1UEAxQJQ0Ff
dGlqZWxvMRowGAYJKoZIhvcNAQkBFgtjYUBtYWlsLmNvbTAeFw0yNDAxMjIxMjM3
MzRaFw0yNTAxMjExMjM3MzRaMFoxCzAJBgNVBAYTAkJBMQswCQYDVQQIEwJSUzEL
MAkGA1UEChMCTEExCzAJBgNVBAsTAkxBMQ4wDAYDVQQDEwVtYXJrbzEUMBIGCSqG
SIb3DQEJARYFbWFya28wggIiMA0GCSqGSIb3DQEBAQUAA4ICDwAwggIKAoICAQDF
BwZZoZbiLr9e6/iaSgJMOgE/Qy3hO1xJklflYvJQWi3HxmXocngUe6rEebdGBWGJ
M01uXECw2P5T1kofO79gjh3mHqzF5D9kXa8iPpUdX+XcHbiUpTgAAzS0rS9rPcTQ
2bSPR2RquqlMM8KzJJccilGTEVaEfotO2Ga1KSF4TTDXBi2aX2h50Mrv3ig6sPE4
9eLgBqeGzrnMHqRnc2Va9huVS5A1VQTAypRWk3U50/zkWGqEfWEPSXkJIaM6FR9L
G6dF3Skd427cU+xZZWwQrRmCe2tz99suTtvXlBAghx68AyFr7FEXtgd7x+vWnOB0
bl1giBBFlxWBwIF3GIbYaBPSidCsgQUEvK3PNo9HbW4n9AKJUBBtVKYpf8ectJeN
d37I+h5ShW8CzlkC7Vn+d3oPrDn9PA2+tFKQjv3daNLwZyvTrasbu/tA8u5jcBwH
bVlIg4eJT1xZSp/2Q+ECwmdfSQTIkT96fuxkLV87Wed+GnHWD6OsG2NtG46d0bM1
EzmWQWRY4dvXF6e+x2MNHmVWf32X0SZdN+fa9zRxCKj0nmRWF+PmAS22s6SZbr/R
uloLzo/b/xIXWwI9IJJQF6uVAHht+i9txgAB/z0d/kJtqoT4xuUN76cqlNaDkNO+
EuRcml65fr5y7w2dHWeyqbipZ/2WbOp1XnoRHpdl2QIDAQABo4HbMIHYMAkGA1Ud
EwQCMAAwCwYDVR0PBAQDAgeAMB0GA1UdJQQWMBQGCCsGAQUFBwMCBggrBgEFBQcD
ATAsBglghkgBhvhCAQ0EHxYdT3BlblNTTCBHZW5lcmF0ZWQgQ2VydGlmaWNhdGUw
HQYDVR0OBBYEFO8lG59EMxJj9wMJNUGVpFqKwn21MB8GA1UdIwQYMBaAFOHDkFAc
QMcvERnj8GBWR8BGhZFiMDEGA1UdHwQqMCgwJqAkoCKGIGh0dHA6Ly8xOTIuMTY4
LjIxLjg5L3Jvb3RjcmwucGVtMA0GCSqGSIb3DQEBBQUAA4ICAQAHiU6lYEuNQ5zh
txIwvInLp/UYVDl2Uf2xVMUU/T+Uc8zYGyykjUTYMP96X+GR83kofplRb8P0dvV4
TnVLwVP0PRknfHDZe/JHnqn+ttxmzHnqVxWlr5cou8/CIQy2iOJK94YY2BlDaLNS
TDOpWjx3UXn4/HbrCx0DuKOqR/GKfPocVVBkTNuUhexn/Sjhcg9EhYpOlCSzUSyz
yr5KVV8460xQBicSjyjUwYWtjUdVPxAOU6YZ5nQwoufskyHPzwLdrub4/dc+zp8c
5o2tjP2g915s/wwlAOLNFDtUKWdFeNu3qWBopoBeF1JbGyBZgV+3Y7J5nEwQZQJS
y967Mbyec1syojM24kaio/t2XvtIuq1EccJRhrVLEjKooDtAiYPGgAsPAFEa6OMv
EtM9l091dnUkhKGb8v4xQSD9Ey2fxdneMl3YkfIdqPbOHkiKY8JcDtYYTynFnnvk
m7nQO6ibl7m0h4TlSLWxtRBRQeXtA1stta8ni9LXPSydkydebDBE2DKiWpTSeKcm
2yuhCVVm4eScrABzperQpHBgBUnmHwhQUbUJdw5zHg1WQsRebNLPaJYr51hyNVUY
UkvqxW5+pHiY1tLjiBnQ5lG8MNRNJv1hab2uoGgglHiDVbi7hwsbMKb239h1zW28
lVnO8qKSTjwnP2EhhM8gjtOG4GfWoQ==
-----END CERTIFICATE-----
