Certificate:
    Data:
        Version: 3 (0x2)
        Serial Number: 20 (0x14)
        Signature Algorithm: sha1WithRSAEncryption
        Issuer: C=BA, ST=RS, L=Banja Luka, O=Elektrotehnicki fakultet, OU=ETF, CN=CA_tijelo/emailAddress=ca@mail.com
        Validity
            Not Before: Jan 23 00:15:05 2024 GMT
            Not After : Jan 22 00:15:05 2025 GMT
        Subject: C=BA, ST=RS, O=ETF, OU=ETF, CN=Mile/emailAddress=mile@mail.com
        Subject Public Key Info:
            Public Key Algorithm: rsaEncryption
                RSA Public-Key: (4096 bit)
                Modulus:
                    00:b1:c9:2a:b9:62:a4:de:b8:9b:7c:2e:c2:ce:70:
                    7b:84:a5:41:71:5f:7a:3e:58:49:6e:ec:5e:68:d4:
                    e1:ea:44:22:f8:4d:7a:88:2b:c9:ae:33:50:bb:9b:
                    6c:32:77:70:e2:1f:48:7e:70:f3:e3:c2:5f:17:8b:
                    62:74:af:9a:e7:a3:66:c7:fb:7b:6b:87:59:69:d8:
                    de:95:f1:e2:c0:6e:68:a8:bf:ff:52:29:14:d6:2d:
                    e7:b2:57:ea:e2:d1:2c:0d:57:c9:c4:bf:22:c1:0c:
                    d5:25:34:9a:d9:d3:a5:a1:d3:42:87:dc:bf:c6:0e:
                    c4:9f:29:35:bf:ba:bf:31:18:49:d0:1e:80:aa:56:
                    26:a5:f2:cf:7d:71:a4:b0:71:f5:fe:3a:62:02:24:
                    8d:6b:f4:79:7a:59:23:a7:c4:7a:e8:2d:ac:e0:e8:
                    44:76:8b:10:cc:54:7e:43:75:f8:94:9d:9d:a7:88:
                    ce:b6:f7:b7:5a:7f:e3:4f:32:5c:44:d1:67:58:9d:
                    6f:ea:a7:dc:45:03:60:48:3a:30:69:df:2d:76:fe:
                    67:8c:5e:11:50:f6:b7:f3:f6:cb:81:ce:51:90:80:
                    ab:72:63:28:fe:34:71:fb:3b:86:ef:44:de:2a:53:
                    d6:72:52:ae:60:e7:5d:d5:34:d6:b8:d7:51:b3:f9:
                    16:07:d5:f2:63:10:bc:3f:86:2c:6a:70:c3:25:e9:
                    96:8f:42:7a:b5:e7:c1:f8:3a:27:63:f6:f3:02:bd:
                    c5:09:be:6f:ba:ff:e2:21:00:35:e9:01:b9:89:a6:
                    39:17:8f:ff:46:9e:c7:51:05:c0:99:a3:84:05:2e:
                    28:7d:1e:a6:b0:2d:e9:2b:c6:05:8c:b9:93:15:84:
                    3f:66:91:52:b7:80:af:86:2e:46:88:b9:03:ca:be:
                    f0:c6:bc:ef:c4:8b:4f:4a:7e:9a:63:3d:d5:5c:0f:
                    2c:2a:07:96:46:75:65:68:33:5f:cf:bd:d6:d3:ca:
                    96:15:58:e0:da:05:c7:a7:93:e3:44:66:f9:21:62:
                    15:ed:30:86:a2:76:8e:3d:b8:ed:10:11:58:55:d9:
                    ad:3a:28:ad:07:3a:72:93:5a:ab:93:6c:a5:96:dc:
                    66:a6:20:e2:c8:ff:f4:9d:95:0c:cd:1b:fc:03:9c:
                    b7:50:a1:a1:d2:27:41:f4:56:b3:f8:03:3f:d2:66:
                    3a:bf:c1:15:c3:b3:a6:64:1b:af:3c:c8:ff:a9:15:
                    ac:d4:05:bc:f3:1f:65:08:aa:d9:65:97:1b:67:77:
                    fe:2d:82:93:ed:00:a5:bd:7f:81:77:10:16:3a:79:
                    09:35:2d:13:78:36:65:a2:0a:17:94:99:fd:ef:70:
                    ab:2e:33
                Exponent: 65537 (0x10001)
        X509v3 extensions:
            X509v3 Basic Constraints: 
                CA:FALSE
            X509v3 Key Usage: 
                Digital Signature
            X509v3 Extended Key Usage: 
                TLS Web Client Authentication, TLS Web Server Authentication
            Netscape Comment: 
                OpenSSL Generated Certificate
            X509v3 Subject Key Identifier: 
                28:02:7C:6D:C7:D6:D4:38:5E:6A:43:32:71:6F:12:11:A0:AA:BE:FA
            X509v3 Authority Key Identifier: 
                keyid:E1:C3:90:50:1C:40:C7:2F:11:19:E3:F0:60:56:47:C0:46:85:91:62

            X509v3 CRL Distribution Points: 

                Full Name:
                  URI:http://192.168.21.89/rootcrl.pem

    Signature Algorithm: sha1WithRSAEncryption
         61:43:f0:c4:18:3c:8c:9a:48:90:c1:5f:8d:40:ff:52:80:9c:
         7e:09:58:90:3a:7e:a8:52:4f:e0:49:c0:e5:9f:28:17:62:f3:
         c8:c5:9f:24:02:a6:56:d8:be:bb:2c:99:41:b6:40:99:f5:e3:
         99:23:36:69:62:07:de:48:a3:14:ad:25:30:48:ec:de:88:11:
         9d:ee:40:38:39:6e:92:02:fa:70:e3:6d:86:f6:ea:1b:b9:2c:
         6d:27:03:68:39:e5:07:06:00:96:55:cf:3c:a5:e0:51:93:ef:
         8f:40:28:69:6a:1b:2e:48:9b:a2:0c:15:71:4c:a2:ec:ea:fd:
         fc:9c:ca:c0:00:2d:0d:1a:7c:8d:e1:92:95:ed:39:2a:1f:ab:
         99:8e:5c:ee:44:c7:e9:af:f6:58:de:5d:94:27:4f:59:f5:b0:
         be:cf:73:70:db:66:92:41:fd:db:f9:42:e4:c4:1e:76:bf:fe:
         dc:f3:29:be:24:41:48:b3:2f:66:8d:b2:ec:d2:0b:2f:38:6b:
         d2:1c:bf:a0:d4:c0:a1:db:66:84:f4:77:08:03:f0:77:b8:18:
         e0:91:88:92:90:7e:65:16:49:8f:6c:32:7a:14:34:bd:cc:d7:
         b9:ba:6f:61:57:28:70:e6:e0:a8:1b:e5:ab:68:56:48:d6:88:
         23:81:39:27:a6:60:62:bd:39:6d:80:ad:75:05:fb:d0:8c:5e:
         c6:41:a5:38:97:ed:40:0d:7a:ef:ee:c0:a9:6e:69:17:1d:44:
         f9:85:d5:94:8c:c6:cf:6e:b7:d7:37:e8:3f:e9:cc:d0:62:c2:
         8e:24:12:fa:71:12:fe:4a:d5:e9:70:04:b7:cb:00:76:2f:e1:
         9e:5b:ea:ca:3e:72:76:ad:0d:7c:f1:28:28:fc:b6:a6:c3:2f:
         5d:85:74:34:75:ac:04:f3:a8:c7:81:d0:8f:38:d4:bc:ef:b7:
         e0:82:e8:13:c1:52:6d:de:20:cc:9b:ac:d7:2b:5c:66:76:da:
         9d:62:01:35:39:f5:f8:30:b3:bf:36:42:44:06:a7:8d:32:43:
         ee:de:da:d2:15:85:f4:c9:f9:cf:01:ba:7e:04:15:50:5c:bc:
         b9:35:72:67:ad:d9:0d:a9:67:1c:47:ca:69:e9:a4:e8:e9:4e:
         0a:ed:cf:0c:3c:10:41:46:10:de:49:12:70:74:b8:58:93:25:
         38:5b:36:6d:64:41:db:98:2b:ea:b3:11:b2:6a:85:cf:cc:ff:
         c0:f1:9c:88:8a:85:55:1c:2c:23:12:cd:fb:af:08:93:89:92:
         50:81:7e:d7:a5:8b:96:9c:04:0b:ba:a2:0d:b3:70:8f:e0:8c:
         ae:f1:07:52:2a:84:ce:95
-----BEGIN CERTIFICATE-----
MIIGSzCCBDOgAwIBAgIBFDANBgkqhkiG9w0BAQUFADCBkDELMAkGA1UEBhMCQkEx
CzAJBgNVBAgTAlJTMRMwEQYDVQQHEwpCYW5qYSBMdWthMSEwHwYDVQQKExhFbGVr
dHJvdGVobmlja2kgZmFrdWx0ZXQxDDAKBgNVBAsTA0VURjESMBAGA1UEAxQJQ0Ff
dGlqZWxvMRowGAYJKoZIhvcNAQkBFgtjYUBtYWlsLmNvbTAeFw0yNDAxMjMwMDE1
MDVaFw0yNTAxMjIwMDE1MDVaMGMxCzAJBgNVBAYTAkJBMQswCQYDVQQIEwJSUzEM
MAoGA1UEChMDRVRGMQwwCgYDVQQLEwNFVEYxDTALBgNVBAMTBE1pbGUxHDAaBgkq
hkiG9w0BCQEWDW1pbGVAbWFpbC5jb20wggIiMA0GCSqGSIb3DQEBAQUAA4ICDwAw
ggIKAoICAQCxySq5YqTeuJt8LsLOcHuEpUFxX3o+WElu7F5o1OHqRCL4TXqIK8mu
M1C7m2wyd3DiH0h+cPPjwl8Xi2J0r5rno2bH+3trh1lp2N6V8eLAbmiov/9SKRTW
LeeyV+ri0SwNV8nEvyLBDNUlNJrZ06Wh00KH3L/GDsSfKTW/ur8xGEnQHoCqVial
8s99caSwcfX+OmICJI1r9Hl6WSOnxHroLazg6ER2ixDMVH5DdfiUnZ2niM6297da
f+NPMlxE0WdYnW/qp9xFA2BIOjBp3y12/meMXhFQ9rfz9suBzlGQgKtyYyj+NHH7
O4bvRN4qU9ZyUq5g513VNNa411Gz+RYH1fJjELw/hixqcMMl6ZaPQnq158H4Oidj
9vMCvcUJvm+6/+IhADXpAbmJpjkXj/9GnsdRBcCZo4QFLih9HqawLekrxgWMuZMV
hD9mkVK3gK+GLkaIuQPKvvDGvO/Ei09KfppjPdVcDywqB5ZGdWVoM1/PvdbTypYV
WODaBcenk+NEZvkhYhXtMIaido49uO0QEVhV2a06KK0HOnKTWquTbKWW3GamIOLI
//SdlQzNG/wDnLdQoaHSJ0H0VrP4Az/SZjq/wRXDs6ZkG688yP+pFazUBbzzH2UI
qtlllxtnd/4tgpPtAKW9f4F3EBY6eQk1LRN4NmWiCheUmf3vcKsuMwIDAQABo4Hb
MIHYMAkGA1UdEwQCMAAwCwYDVR0PBAQDAgeAMB0GA1UdJQQWMBQGCCsGAQUFBwMC
BggrBgEFBQcDATAsBglghkgBhvhCAQ0EHxYdT3BlblNTTCBHZW5lcmF0ZWQgQ2Vy
dGlmaWNhdGUwHQYDVR0OBBYEFCgCfG3H1tQ4XmpDMnFvEhGgqr76MB8GA1UdIwQY
MBaAFOHDkFAcQMcvERnj8GBWR8BGhZFiMDEGA1UdHwQqMCgwJqAkoCKGIGh0dHA6
Ly8xOTIuMTY4LjIxLjg5L3Jvb3RjcmwucGVtMA0GCSqGSIb3DQEBBQUAA4ICAQBh
Q/DEGDyMmkiQwV+NQP9SgJx+CViQOn6oUk/gScDlnygXYvPIxZ8kAqZW2L67LJlB
tkCZ9eOZIzZpYgfeSKMUrSUwSOzeiBGd7kA4OW6SAvpw422G9uobuSxtJwNoOeUH
BgCWVc88peBRk++PQChpahsuSJuiDBVxTKLs6v38nMrAAC0NGnyN4ZKV7TkqH6uZ
jlzuRMfpr/ZY3l2UJ09Z9bC+z3Nw22aSQf3b+ULkxB52v/7c8ym+JEFIsy9mjbLs
0gsvOGvSHL+g1MCh22aE9HcIA/B3uBjgkYiSkH5lFkmPbDJ6FDS9zNe5um9hVyhw
5uCoG+WraFZI1ogjgTknpmBivTltgK11BfvQjF7GQaU4l+1ADXrv7sCpbmkXHUT5
hdWUjMbPbrfXN+g/6czQYsKOJBL6cRL+StXpcAS3ywB2L+GeW+rKPnJ2rQ188Sgo
/Lamwy9dhXQ0dawE86jHgdCPONS877fggugTwVJt3iDMm6zXK1xmdtqdYgE1OfX4
MLO/NkJEBqeNMkPu3trSFYX0yfnPAbp+BBVQXLy5NXJnrdkNqWccR8pp6aTo6U4K
7c8MPBBBRhDeSRJwdLhYkyU4WzZtZEHbmCvqsxGyaoXPzP/A8ZyIioVVHCwjEs37
rwiTiZJQgX7XpYuWnAQLuqINs3CP4Iyu8QdSKoTOlQ==
-----END CERTIFICATE-----
