Certificate:
    Data:
        Version: 3 (0x2)
        Serial Number: 3 (0x3)
        Signature Algorithm: sha1WithRSAEncryption
        Issuer: C=BA, ST=RS, L=Banja Luka, O=Elektrotehnicki fakultet, OU=ETF, CN=CA_tijelo/emailAddress=ca@mail.com
        Validity
            Not Before: Jan 22 01:51:35 2024 GMT
            Not After : Jan 21 01:51:35 2025 GMT
        Subject: C=BA, ST=RS, O=Elektrotehnicki fakultet, OU=ETF, CN=ooo/emailAddress=poopp
        Subject Public Key Info:
            Public Key Algorithm: rsaEncryption
                RSA Public-Key: (4096 bit)
                Modulus:
                    00:c6:bb:06:74:37:aa:93:66:bc:56:d0:f7:5c:d6:
                    5d:24:8f:fe:67:cc:6e:e1:d1:2e:72:39:3e:10:51:
                    66:0d:0a:32:fc:46:71:20:bd:fa:2b:be:e0:05:2b:
                    65:54:4a:e5:ce:a4:bb:77:97:49:a8:e1:ab:4f:ea:
                    ba:88:0f:14:54:60:42:d5:18:a3:2b:d3:d9:c9:03:
                    22:25:3a:b4:4d:f4:18:4a:a3:e7:db:73:25:61:6c:
                    34:08:7b:64:a7:8e:8e:98:d3:a1:ff:ea:63:a6:bd:
                    b9:7d:ed:5f:69:9c:a2:da:74:4c:36:59:77:30:b3:
                    7e:9e:e3:b8:ef:32:f9:c7:32:cb:0f:f2:10:b4:99:
                    d0:79:ce:b5:30:80:7e:71:60:99:c5:84:60:23:38:
                    bd:e9:54:e3:21:08:de:93:39:ac:8b:ed:b2:27:06:
                    70:13:fb:50:fa:6d:6b:ad:02:39:eb:51:38:72:95:
                    0d:b7:06:34:0c:f7:f4:b9:a4:b8:67:ff:86:25:cc:
                    7b:2c:6d:b1:35:45:c8:19:ba:ad:92:11:fa:58:20:
                    75:41:21:44:16:03:5e:79:21:15:e1:01:1e:e7:00:
                    41:ae:b4:21:e9:e3:8c:e4:cb:b2:c8:09:9c:f0:86:
                    4f:f9:ed:12:ef:f0:54:93:ea:7f:07:45:0e:60:9d:
                    35:55:ba:c5:d4:04:7b:06:1d:25:05:17:e8:81:eb:
                    a8:ac:9c:ba:e8:47:7c:05:b1:ec:e4:ff:73:07:4e:
                    39:d8:0f:02:63:b6:14:c0:f8:ef:99:8e:9b:67:1d:
                    61:53:c4:1a:08:b7:7c:2f:8a:6e:70:59:a3:ad:52:
                    88:d2:50:96:ff:f0:3e:3f:30:5e:99:e9:63:56:16:
                    db:7d:8b:7c:e0:00:4d:33:e9:57:1c:42:d3:29:f4:
                    f1:78:6c:55:40:4e:15:45:e1:72:4f:53:b0:0b:b6:
                    39:14:dc:8a:9a:c1:ee:08:0d:7d:3f:5a:f9:5c:a6:
                    83:98:83:99:f3:99:78:23:0e:7b:00:a0:a9:e3:a2:
                    d3:c2:94:64:18:7f:fe:50:68:ee:44:ac:cb:54:b7:
                    08:f6:8b:a1:4d:90:68:7d:e8:cf:15:7f:42:fd:72:
                    f9:1a:5a:b6:26:f9:d2:42:71:b2:43:a2:db:38:9f:
                    b9:b9:61:73:08:c3:c8:f2:ed:8f:61:55:d9:c1:78:
                    68:1a:03:f8:53:f6:b4:c8:fb:83:66:42:9c:10:65:
                    4c:84:3d:18:5a:2b:b8:e5:72:aa:42:e7:69:9e:28:
                    1c:0c:e2:dc:97:97:a0:5d:1b:1b:64:eb:d8:a1:9e:
                    12:0f:ef:1f:35:84:29:d4:94:0d:50:ba:b9:d8:f8:
                    0e:69:95
                Exponent: 65537 (0x10001)
        X509v3 extensions:
            X509v3 Basic Constraints: 
                CA:FALSE
            X509v3 Key Usage: 
                Digital Signature
            X509v3 Extended Key Usage: 
                TLS Web Client Authentication, TLS Web Server Authentication
            Netscape Comment: 
                OpenSSL Generated Certificate
            X509v3 Subject Key Identifier: 
                3E:36:C9:BE:2B:63:35:33:C1:D9:BB:51:73:9A:6D:7E:F9:D2:C0:5F
            X509v3 Authority Key Identifier: 
                keyid:E1:C3:90:50:1C:40:C7:2F:11:19:E3:F0:60:56:47:C0:46:85:91:62

            X509v3 CRL Distribution Points: 

                Full Name:
                  URI:http://192.168.21.89/rootcrl.pem

    Signature Algorithm: sha1WithRSAEncryption
         ac:f3:b5:6a:cf:b7:1c:d1:f9:0e:0d:a8:2b:97:ad:e1:1b:d4:
         4d:6e:a2:8e:3b:65:0c:7b:66:0a:c3:09:a0:8f:de:75:02:6e:
         e2:b9:2f:64:f2:60:b2:a5:cb:d8:8d:81:38:3f:38:d0:00:89:
         64:5c:bb:a0:b1:02:3e:2e:c6:e4:b0:b6:00:fd:bd:47:f4:5d:
         83:08:5a:c2:fa:a4:64:40:57:82:96:aa:02:10:d1:93:c7:0d:
         c1:7c:19:28:08:1d:c3:26:f0:9e:23:8d:46:5f:65:ca:70:5d:
         31:c2:a9:e5:49:92:43:9a:10:74:d9:8c:f7:67:e4:38:2a:36:
         37:a0:b0:c8:66:f1:c1:82:4c:47:8e:a3:9f:a9:81:a4:2c:bb:
         e1:52:a3:43:02:4a:d7:ac:c2:bd:e9:03:6f:74:ce:ce:69:79:
         e2:6e:93:1c:59:a2:94:2e:01:d7:fb:8c:42:ca:01:a3:9a:15:
         c9:d2:1a:b9:1a:d4:0e:3e:fd:64:7a:5a:80:55:82:07:40:85:
         d0:49:92:91:b7:6e:30:fe:60:31:d1:c0:8e:b1:cd:88:40:88:
         b2:dc:af:e7:5d:0b:d5:1b:64:5b:f9:ea:04:ec:64:f1:c4:72:
         2e:50:3a:34:f6:8d:01:36:6f:00:ea:9a:80:fa:2c:81:ce:e9:
         40:ec:fd:6e:7c:bb:12:fa:9d:2f:5a:b3:fd:5d:f9:d2:21:39:
         6e:36:19:e4:12:0f:7b:0e:62:a7:92:01:91:26:b7:df:e1:df:
         c1:e2:84:2b:eb:31:d6:f4:12:92:72:f3:72:17:26:74:10:f6:
         ab:e6:6a:6a:eb:67:24:e0:b8:bc:83:e6:ce:d5:54:33:4a:0c:
         67:48:61:0b:b1:a6:bb:a1:20:c5:2a:76:38:ad:cf:f0:eb:66:
         84:2e:20:02:c3:f2:c8:55:b3:bf:02:41:f7:ee:f9:1b:d0:de:
         99:f7:ac:67:dc:c3:b6:8a:76:82:60:3f:ec:db:6c:e7:ef:72:
         c0:14:f4:ef:74:47:ed:14:b8:38:1a:1c:e8:99:5d:09:67:31:
         ae:07:ef:81:81:0c:e4:4d:a2:d7:ee:2a:f7:a7:4e:00:a5:81:
         a4:00:51:ce:ce:0b:11:3d:6c:ef:bb:38:a1:5f:3b:5b:9d:8b:
         a2:e9:24:5e:67:fe:6a:fc:80:f9:4f:34:7d:66:0a:2e:84:84:
         48:be:67:e5:7c:c2:a2:ef:97:8a:bb:e4:5f:c6:98:8c:1e:3e:
         d2:81:97:0e:73:73:c2:07:14:03:f9:23:bb:3f:01:22:6a:29:
         29:65:d4:3c:fd:50:83:31:b2:a0:83:7d:bd:55:fa:e1:30:8a:
         60:c0:d2:d9:72:62:0c:ea
-----BEGIN CERTIFICATE-----
MIIGVzCCBD+gAwIBAgIBAzANBgkqhkiG9w0BAQUFADCBkDELMAkGA1UEBhMCQkEx
CzAJBgNVBAgTAlJTMRMwEQYDVQQHEwpCYW5qYSBMdWthMSEwHwYDVQQKExhFbGVr
dHJvdGVobmlja2kgZmFrdWx0ZXQxDDAKBgNVBAsTA0VURjESMBAGA1UEAxQJQ0Ff
dGlqZWxvMRowGAYJKoZIhvcNAQkBFgtjYUBtYWlsLmNvbTAeFw0yNDAxMjIwMTUx
MzVaFw0yNTAxMjEwMTUxMzVaMG8xCzAJBgNVBAYTAkJBMQswCQYDVQQIEwJSUzEh
MB8GA1UEChMYRWxla3Ryb3RlaG5pY2tpIGZha3VsdGV0MQwwCgYDVQQLEwNFVEYx
DDAKBgNVBAMTA29vbzEUMBIGCSqGSIb3DQEJARYFcG9vcHAwggIiMA0GCSqGSIb3
DQEBAQUAA4ICDwAwggIKAoICAQDGuwZ0N6qTZrxW0Pdc1l0kj/5nzG7h0S5yOT4Q
UWYNCjL8RnEgvforvuAFK2VUSuXOpLt3l0mo4atP6rqIDxRUYELVGKMr09nJAyIl
OrRN9BhKo+fbcyVhbDQIe2Snjo6Y06H/6mOmvbl97V9pnKLadEw2WXcws36e47jv
MvnHMssP8hC0mdB5zrUwgH5xYJnFhGAjOL3pVOMhCN6TOayL7bInBnAT+1D6bWut
AjnrUThylQ23BjQM9/S5pLhn/4YlzHssbbE1RcgZuq2SEfpYIHVBIUQWA155IRXh
AR7nAEGutCHp44zky7LICZzwhk/57RLv8FST6n8HRQ5gnTVVusXUBHsGHSUFF+iB
66isnLroR3wFsezk/3MHTjnYDwJjthTA+O+ZjptnHWFTxBoIt3wvim5wWaOtUojS
UJb/8D4/MF6Z6WNWFtt9i3zgAE0z6VccQtMp9PF4bFVAThVF4XJPU7ALtjkU3Iqa
we4IDX0/WvlcpoOYg5nzmXgjDnsAoKnjotPClGQYf/5QaO5ErMtUtwj2i6FNkGh9
6M8Vf0L9cvkaWrYm+dJCcbJDots4n7m5YXMIw8jy7Y9hVdnBeGgaA/hT9rTI+4Nm
QpwQZUyEPRhaK7jlcqpC52meKBwM4tyXl6BdGxtk69ihnhIP7x81hCnUlA1QurnY
+A5plQIDAQABo4HbMIHYMAkGA1UdEwQCMAAwCwYDVR0PBAQDAgeAMB0GA1UdJQQW
MBQGCCsGAQUFBwMCBggrBgEFBQcDATAsBglghkgBhvhCAQ0EHxYdT3BlblNTTCBH
ZW5lcmF0ZWQgQ2VydGlmaWNhdGUwHQYDVR0OBBYEFD42yb4rYzUzwdm7UXOabX75
0sBfMB8GA1UdIwQYMBaAFOHDkFAcQMcvERnj8GBWR8BGhZFiMDEGA1UdHwQqMCgw
JqAkoCKGIGh0dHA6Ly8xOTIuMTY4LjIxLjg5L3Jvb3RjcmwucGVtMA0GCSqGSIb3
DQEBBQUAA4ICAQCs87Vqz7cc0fkODagrl63hG9RNbqKOO2UMe2YKwwmgj951Am7i
uS9k8mCypcvYjYE4PzjQAIlkXLugsQI+LsbksLYA/b1H9F2DCFrC+qRkQFeClqoC
ENGTxw3BfBkoCB3DJvCeI41GX2XKcF0xwqnlSZJDmhB02Yz3Z+Q4KjY3oLDIZvHB
gkxHjqOfqYGkLLvhUqNDAkrXrMK96QNvdM7OaXnibpMcWaKULgHX+4xCygGjmhXJ
0hq5GtQOPv1kelqAVYIHQIXQSZKRt24w/mAx0cCOsc2IQIiy3K/nXQvVG2Rb+eoE
7GTxxHIuUDo09o0BNm8A6pqA+iyBzulA7P1ufLsS+p0vWrP9XfnSITluNhnkEg97
DmKnkgGRJrff4d/B4oQr6zHW9BKScvNyFyZ0EPar5mpq62ck4Li8g+bO1VQzSgxn
SGELsaa7oSDFKnY4rc/w62aELiACw/LIVbO/AkH37vkb0N6Z96xn3MO2inaCYD/s
22zn73LAFPTvdEftFLg4GhzomV0JZzGuB++BgQzkTaLX7ir3p04ApYGkAFHOzgsR
PWzvuzihXztbnYui6SReZ/5q/ID5TzR9ZgouhIRIvmflfMKi75eKu+RfxpiMHj7S
gZcOc3PCBxQD+SO7PwEiaikpZdQ8/VCDMbKgg329VfrhMIpgwNLZcmIM6g==
-----END CERTIFICATE-----
