Certificate:
    Data:
        Version: 3 (0x2)
        Serial Number: 1 (0x1)
        Signature Algorithm: sha1WithRSAEncryption
        Issuer: C=BA, ST=RS, L=Banja Luka, O=Elektrotehnicki fakultet, OU=ETF, CN=CA_tijelo/emailAddress=ca@mail.com
        Validity
            Not Before: Jan 21 22:11:53 2024 GMT
            Not After : Jan 20 22:11:53 2025 GMT
        Subject: C=BA, ST=RS, O=ETF, OU=ETF, CN=Test Test/emailAddress=test@mail.com
        Subject Public Key Info:
            Public Key Algorithm: rsaEncryption
                RSA Public-Key: (2048 bit)
                Modulus:
                    00:c0:3d:87:15:8b:19:2d:68:20:25:8d:71:d2:3b:
                    36:97:60:e8:b9:b1:b2:94:d8:0d:32:ef:27:56:b9:
                    e0:8e:37:c2:08:c1:c3:87:13:43:a6:45:01:b2:b0:
                    59:20:e5:a1:45:42:56:67:74:97:2a:c9:1d:8d:65:
                    98:84:52:ce:07:8a:f7:3f:58:9d:3f:11:6c:22:f5:
                    c0:6c:13:ff:5f:e7:60:2b:2c:6e:b0:01:d7:c8:a5:
                    5a:2f:e0:f0:69:09:22:18:d2:30:cd:43:e7:1b:f6:
                    ce:be:8b:1b:df:fb:4b:b0:e1:a2:85:1e:21:3f:9f:
                    83:23:e4:7f:62:59:6c:55:81:07:69:8c:81:1d:63:
                    39:85:46:86:07:67:dd:77:72:5d:35:ca:6e:ba:4c:
                    ba:40:44:c1:14:2e:83:f7:42:24:fa:4f:d9:b7:4c:
                    e0:f8:56:bc:4d:d8:41:f5:03:aa:3d:b4:f0:a5:ed:
                    5d:84:f9:4e:54:f0:7a:47:0c:d5:a9:5f:dc:17:8b:
                    ac:96:9e:de:dd:16:77:d9:ba:cd:6c:ee:1e:3a:cf:
                    b7:96:6d:cb:c5:f7:9b:0a:f5:b0:37:c7:aa:f1:31:
                    55:a4:d4:77:a5:d5:54:0a:09:af:7f:e5:49:b9:fa:
                    0f:62:cc:09:ae:e7:0b:fc:d1:00:0e:ed:50:fb:00:
                    ee:63
                Exponent: 65537 (0x10001)
        X509v3 extensions:
            X509v3 Basic Constraints: 
                CA:FALSE
            X509v3 Key Usage: 
                Digital Signature
            X509v3 Extended Key Usage: 
                TLS Web Client Authentication, TLS Web Server Authentication
            Netscape Comment: 
                OpenSSL Generated Certificate
            X509v3 Subject Key Identifier: 
                59:77:B7:9E:14:69:73:6A:D7:6E:25:AF:09:41:7B:2B:82:CF:53:1C
            X509v3 Authority Key Identifier: 
                keyid:E1:C3:90:50:1C:40:C7:2F:11:19:E3:F0:60:56:47:C0:46:85:91:62

            X509v3 CRL Distribution Points: 

                Full Name:
                  URI:http://192.168.21.89/rootcrl.pem

    Signature Algorithm: sha1WithRSAEncryption
         91:7d:b6:89:d1:1b:67:02:e7:08:66:1e:3a:dd:14:15:88:0d:
         b2:bc:fc:64:41:53:e8:ad:4a:de:62:c4:21:74:2f:3d:c6:26:
         65:8e:17:92:30:d1:a6:72:2d:5e:4e:26:39:64:70:ec:27:35:
         9f:e9:f3:53:b8:49:3d:44:1f:82:cb:81:2b:a5:3f:e6:b6:72:
         81:69:92:8f:0d:24:b7:d8:50:90:de:5d:50:60:6e:93:a4:94:
         b7:22:c0:c3:f7:1b:b2:93:9b:2b:5e:0d:60:b9:44:cd:98:6e:
         5f:83:61:15:2b:03:93:07:05:bb:23:21:10:f5:a1:c2:77:eb:
         3d:27:76:af:f7:56:55:16:d9:0f:15:42:4a:62:cd:79:30:d0:
         8e:90:a0:a9:e5:ba:e0:02:42:5a:7e:3b:30:d4:86:d0:61:51:
         63:f9:4b:86:56:15:2c:eb:27:0a:84:5e:9b:bb:8e:d2:ed:93:
         fc:57:e0:5c:97:3b:d5:b2:b4:c7:12:0f:5e:fb:ae:b8:0c:77:
         ae:6b:37:49:51:88:1c:d6:c9:d6:d6:aa:94:e6:42:22:f4:ba:
         43:57:45:e8:aa:32:ad:0e:90:37:61:cd:99:c8:9b:d1:f4:ec:
         f9:6b:9f:e5:f9:8d:1d:cd:27:aa:d5:c2:9e:e7:b1:1f:47:df:
         7b:98:b4:c5:62:f6:08:60:ff:9e:f1:5b:1b:38:d8:0b:af:4f:
         04:ca:04:2c:20:1b:de:ac:fb:33:f2:c0:1f:8f:f7:42:f7:4d:
         dc:57:c4:db:19:c2:e4:41:a3:94:8a:59:1d:bf:47:ef:fd:04:
         16:00:c8:ab:c8:24:f2:e1:e5:a3:a8:85:27:09:d4:88:9e:17:
         f1:67:c8:2a:81:55:97:8d:b0:27:ae:85:16:1f:0b:9c:ac:cb:
         b6:0f:18:a0:ae:ca:e0:80:8d:fc:d2:48:e2:e4:40:61:a6:c4:
         fd:23:18:a8:ab:45:79:27:a3:6d:5a:c9:a5:52:e1:0a:64:c3:
         b9:0e:7e:6e:31:b6:26:c1:d8:49:a1:92:d9:61:43:17:ea:68:
         f5:16:a9:d0:cd:a2:dc:fd:72:b1:84:8b:15:bb:0a:23:58:14:
         80:3e:46:2a:17:93:7d:2a:e1:bf:7d:cd:85:41:b7:35:32:f1:
         b7:4a:2d:fb:41:f7:d1:ff:31:fc:a1:3f:2f:b4:5e:26:a6:25:
         3c:4b:32:09:df:ab:be:a5:a1:14:ef:c7:11:64:b6:cc:f6:4a:
         34:01:97:be:ce:f0:9d:24:44:5f:f3:f8:95:52:16:33:ab:4d:
         3b:08:b9:6b:0d:49:03:d8:93:ea:9e:5d:8c:c7:d1:30:32:e8:
         3c:3f:6c:c8:b3:50:df:70
-----BEGIN CERTIFICATE-----
MIIFUDCCAzigAwIBAgIBATANBgkqhkiG9w0BAQUFADCBkDELMAkGA1UEBhMCQkEx
CzAJBgNVBAgTAlJTMRMwEQYDVQQHEwpCYW5qYSBMdWthMSEwHwYDVQQKExhFbGVr
dHJvdGVobmlja2kgZmFrdWx0ZXQxDDAKBgNVBAsTA0VURjESMBAGA1UEAxQJQ0Ff
dGlqZWxvMRowGAYJKoZIhvcNAQkBFgtjYUBtYWlsLmNvbTAeFw0yNDAxMjEyMjEx
NTNaFw0yNTAxMjAyMjExNTNaMGgxCzAJBgNVBAYTAkJBMQswCQYDVQQIEwJSUzEM
MAoGA1UEChMDRVRGMQwwCgYDVQQLEwNFVEYxEjAQBgNVBAMTCVRlc3QgVGVzdDEc
MBoGCSqGSIb3DQEJARYNdGVzdEBtYWlsLmNvbTCCASIwDQYJKoZIhvcNAQEBBQAD
ggEPADCCAQoCggEBAMA9hxWLGS1oICWNcdI7Npdg6LmxspTYDTLvJ1a54I43wgjB
w4cTQ6ZFAbKwWSDloUVCVmd0lyrJHY1lmIRSzgeK9z9YnT8RbCL1wGwT/1/nYCss
brAB18ilWi/g8GkJIhjSMM1D5xv2zr6LG9/7S7DhooUeIT+fgyPkf2JZbFWBB2mM
gR1jOYVGhgdn3XdyXTXKbrpMukBEwRQug/dCJPpP2bdM4PhWvE3YQfUDqj208KXt
XYT5TlTwekcM1alf3BeLrJae3t0Wd9m6zWzuHjrPt5Zty8X3mwr1sDfHqvExVaTU
d6XVVAoJr3/lSbn6D2LMCa7nC/zRAA7tUPsA7mMCAwEAAaOB2zCB2DAJBgNVHRME
AjAAMAsGA1UdDwQEAwIHgDAdBgNVHSUEFjAUBggrBgEFBQcDAgYIKwYBBQUHAwEw
LAYJYIZIAYb4QgENBB8WHU9wZW5TU0wgR2VuZXJhdGVkIENlcnRpZmljYXRlMB0G
A1UdDgQWBBRZd7eeFGlzatduJa8JQXsrgs9THDAfBgNVHSMEGDAWgBThw5BQHEDH
LxEZ4/BgVkfARoWRYjAxBgNVHR8EKjAoMCagJKAihiBodHRwOi8vMTkyLjE2OC4y
MS44OS9yb290Y3JsLnBlbTANBgkqhkiG9w0BAQUFAAOCAgEAkX22idEbZwLnCGYe
Ot0UFYgNsrz8ZEFT6K1K3mLEIXQvPcYmZY4XkjDRpnItXk4mOWRw7Cc1n+nzU7hJ
PUQfgsuBK6U/5rZygWmSjw0kt9hQkN5dUGBuk6SUtyLAw/cbspObK14NYLlEzZhu
X4NhFSsDkwcFuyMhEPWhwnfrPSd2r/dWVRbZDxVCSmLNeTDQjpCgqeW64AJCWn47
MNSG0GFRY/lLhlYVLOsnCoRem7uO0u2T/FfgXJc71bK0xxIPXvuuuAx3rms3SVGI
HNbJ1taqlOZCIvS6Q1dF6KoyrQ6QN2HNmcib0fTs+Wuf5fmNHc0nqtXCnuexH0ff
e5i0xWL2CGD/nvFbGzjYC69PBMoELCAb3qz7M/LAH4/3QvdN3FfE2xnC5EGjlIpZ
Hb9H7/0EFgDIq8gk8uHlo6iFJwnUiJ4X8WfIKoFVl42wJ66FFh8LnKzLtg8YoK7K
4ICN/NJI4uRAYabE/SMYqKtFeSejbVrJpVLhCmTDuQ5+bjG2JsHYSaGS2WFDF+po
9Rap0M2i3P1ysYSLFbsKI1gUgD5GKheTfSrhv33NhUG3NTLxt0ot+0H30f8x/KE/
L7ReJqYlPEsyCd+rvqWhFO/HEWS2zPZKNAGXvs7wnSREX/P4lVIWM6tNOwi5aw1J
A9iT6p5djMfRMDLoPD9syLNQ33A=
-----END CERTIFICATE-----
