Certificate:
    Data:
        Version: 3 (0x2)
        Serial Number: 2 (0x2)
        Signature Algorithm: sha1WithRSAEncryption
        Issuer: C=BA, ST=RS, L=Banja Luka, O=Elektrotehnicki fakultet, OU=ETF, CN=CA_tijelo/emailAddress=ca@mail.com
        Validity
            Not Before: Jan 21 23:19:20 2024 GMT
            Not After : Jan 20 23:19:20 2025 GMT
        Subject: C=BA, ST=RS, O=Elektrotehnicki fakultet, OU=ETF, CN=kkk/emailAddress=kkk
        Subject Public Key Info:
            Public Key Algorithm: rsaEncryption
                Public-Key: (2048 bit)
                Modulus:
                    00:99:8a:25:e1:7c:67:f0:c7:76:bd:3c:0d:d8:2c:
                    08:4a:04:b1:48:13:60:0a:81:80:7d:74:1d:b0:cd:
                    af:3c:1e:5e:6e:1e:c9:3f:29:97:c6:b7:0a:98:7b:
                    a9:bb:7c:c9:ec:b5:c3:c0:06:02:d7:c3:b1:c2:e9:
                    e2:05:d1:1b:8f:50:b5:89:0c:9b:de:80:17:f3:7c:
                    52:c2:8e:54:b4:81:03:00:fa:a7:19:32:4e:4d:19:
                    0b:c3:b1:5d:07:5d:71:8b:bd:51:5e:c7:c0:22:62:
                    49:04:d9:c0:06:c1:e0:17:77:dd:0b:62:4a:21:58:
                    ec:fb:1b:21:90:c2:23:6a:52:89:36:f7:60:1e:90:
                    a9:02:22:ca:1d:94:f3:b7:5f:a1:69:ee:6a:04:ff:
                    22:8d:0e:dd:a2:e1:5b:20:6d:ba:c0:b0:d0:b8:dd:
                    ee:98:be:c2:7d:f6:50:ee:c8:94:6c:1e:f3:02:06:
                    30:65:46:c2:d1:31:48:3a:d3:ef:9f:4f:e4:b8:86:
                    64:f0:46:b1:1b:e1:ef:0c:21:da:7b:e1:37:4c:23:
                    45:6e:8b:14:47:d6:4d:21:07:9b:d2:f2:6a:cc:97:
                    c3:ef:a7:53:93:96:b1:45:f2:02:76:e0:78:1e:02:
                    0a:b9:f3:4e:6c:6e:4b:b8:b7:5f:63:eb:71:9d:5b:
                    0b:3d
                Exponent: 65537 (0x10001)
        X509v3 extensions:
            X509v3 Basic Constraints: 
                CA:FALSE
            X509v3 Key Usage: 
                Digital Signature
            X509v3 Extended Key Usage: 
                TLS Web Client Authentication, TLS Web Server Authentication
            Netscape Comment: 
                OpenSSL Generated Certificate
            X509v3 Subject Key Identifier: 
                0A:7E:30:67:5F:98:44:7C:A6:9A:E0:CC:BC:A7:3C:6D:85:62:B2:27
            X509v3 Authority Key Identifier: 
                E1:C3:90:50:1C:40:C7:2F:11:19:E3:F0:60:56:47:C0:46:85:91:62
            X509v3 CRL Distribution Points: 
                Full Name:
                  URI:http://192.168.21.89/rootcrl.pem
    Signature Algorithm: sha1WithRSAEncryption
    Signature Value:
        0c:63:2b:5f:49:74:1a:63:1b:e2:69:26:ab:17:77:45:9b:12:
        a1:a1:b6:1d:fd:f8:0e:90:99:53:a0:5e:64:2a:48:d1:05:34:
        f7:90:76:4a:f0:99:4b:5b:7a:38:d6:21:cf:53:cf:1f:98:8a:
        e8:52:6b:16:e0:38:79:4a:45:3c:e1:0b:59:90:3c:ca:4e:07:
        56:96:ec:aa:f3:98:d0:07:0d:f5:27:1e:d7:4d:ae:db:fa:7e:
        df:67:b3:57:20:a6:f0:30:fa:03:b7:6f:67:34:82:eb:41:a3:
        ed:9d:11:54:63:59:49:77:f9:0c:3f:e1:cb:1a:16:bf:de:49:
        16:b4:d2:28:18:e4:ab:17:07:32:fe:87:84:c9:c0:79:42:63:
        00:24:17:aa:47:fd:6a:ef:a1:89:f0:3f:47:75:0c:f6:90:f3:
        bf:8c:ee:0f:f6:9b:24:e7:61:18:f7:27:6f:9d:d9:3f:ab:3c:
        43:20:24:24:5e:b8:10:5a:34:01:82:94:f9:40:8a:d2:d0:dc:
        cc:2b:be:ff:1b:6d:e7:f2:0f:df:bc:3b:6e:6b:ab:13:23:46:
        ea:1f:e6:a5:97:47:5c:ce:fb:af:d0:da:cf:41:5c:97:19:3e:
        3e:09:e7:91:1b:1d:aa:c2:b1:80:c8:07:6d:13:2e:bd:51:5e:
        55:89:5e:63:95:06:73:4f:1e:1e:78:c3:31:6f:fa:3f:91:46:
        87:1b:fb:33:a6:9e:82:91:e7:36:77:61:08:9f:c1:67:6b:bb:
        63:08:4a:09:a6:34:af:60:58:01:32:d5:02:0d:30:65:75:c1:
        78:72:02:21:16:cc:41:2d:7d:31:f7:6d:56:d2:43:d5:44:ec:
        76:fc:c3:12:11:a0:ac:30:d6:bd:82:f4:86:37:85:36:a2:2a:
        fd:af:78:ac:c1:c2:84:5e:84:32:08:e2:8c:86:8b:e4:31:bb:
        01:aa:54:df:63:d1:1b:e2:1b:12:c2:8a:7e:42:4f:ee:76:e5:
        4a:96:3b:52:9c:0a:3b:90:42:4c:ff:80:8a:93:78:5f:12:a9:
        d2:2e:6b:8f:73:fd:88:6f:3c:98:4e:c1:58:c0:54:3a:05:a3:
        1c:18:32:fc:bb:bc:44:6b:7c:fc:4e:15:eb:eb:a8:1b:e2:c6:
        8a:a0:79:91:b0:2b:2b:b6:ad:85:13:5c:53:1b:15:ed:5a:f8:
        17:f0:75:71:75:9d:36:52:d6:fd:04:0f:87:14:59:db:d4:d8:
        bc:ca:06:83:e6:cc:d7:b2:9c:a2:ac:74:58:b2:fa:c8:4a:de:
        e2:06:b4:e8:44:0b:45:9b:d4:0b:eb:53:c8:86:e9:6d:68:8c:
        9f:48:ed:24:59:36:33:4c
-----BEGIN CERTIFICATE-----
MIIFVTCCAz2gAwIBAgIBAjANBgkqhkiG9w0BAQUFADCBkDELMAkGA1UEBhMCQkEx
CzAJBgNVBAgTAlJTMRMwEQYDVQQHEwpCYW5qYSBMdWthMSEwHwYDVQQKExhFbGVr
dHJvdGVobmlja2kgZmFrdWx0ZXQxDDAKBgNVBAsTA0VURjESMBAGA1UEAxQJQ0Ff
dGlqZWxvMRowGAYJKoZIhvcNAQkBFgtjYUBtYWlsLmNvbTAeFw0yNDAxMjEyMzE5
MjBaFw0yNTAxMjAyMzE5MjBaMG0xCzAJBgNVBAYTAkJBMQswCQYDVQQIEwJSUzEh
MB8GA1UEChMYRWxla3Ryb3RlaG5pY2tpIGZha3VsdGV0MQwwCgYDVQQLEwNFVEYx
DDAKBgNVBAMTA2trazESMBAGCSqGSIb3DQEJARYDa2trMIIBIjANBgkqhkiG9w0B
AQEFAAOCAQ8AMIIBCgKCAQEAmYol4Xxn8Md2vTwN2CwISgSxSBNgCoGAfXQdsM2v
PB5ebh7JPymXxrcKmHupu3zJ7LXDwAYC18OxwuniBdEbj1C1iQyb3oAX83xSwo5U
tIEDAPqnGTJOTRkLw7FdB11xi71RXsfAImJJBNnABsHgF3fdC2JKIVjs+xshkMIj
alKJNvdgHpCpAiLKHZTzt1+hae5qBP8ijQ7douFbIG26wLDQuN3umL7CffZQ7siU
bB7zAgYwZUbC0TFIOtPvn0/kuIZk8EaxG+HvDCHae+E3TCNFbosUR9ZNIQeb0vJq
zJfD76dTk5axRfICduB4HgIKufNObG5LuLdfY+txnVsLPQIDAQABo4HbMIHYMAkG
A1UdEwQCMAAwCwYDVR0PBAQDAgeAMB0GA1UdJQQWMBQGCCsGAQUFBwMCBggrBgEF
BQcDATAsBglghkgBhvhCAQ0EHxYdT3BlblNTTCBHZW5lcmF0ZWQgQ2VydGlmaWNh
dGUwHQYDVR0OBBYEFAp+MGdfmER8pprgzLynPG2FYrInMB8GA1UdIwQYMBaAFOHD
kFAcQMcvERnj8GBWR8BGhZFiMDEGA1UdHwQqMCgwJqAkoCKGIGh0dHA6Ly8xOTIu
MTY4LjIxLjg5L3Jvb3RjcmwucGVtMA0GCSqGSIb3DQEBBQUAA4ICAQAMYytfSXQa
YxviaSarF3dFmxKhobYd/fgOkJlToF5kKkjRBTT3kHZK8JlLW3o41iHPU88fmIro
UmsW4Dh5SkU84QtZkDzKTgdWluyq85jQBw31Jx7XTa7b+n7fZ7NXIKbwMPoDt29n
NILrQaPtnRFUY1lJd/kMP+HLGha/3kkWtNIoGOSrFwcy/oeEycB5QmMAJBeqR/1q
76GJ8D9HdQz2kPO/jO4P9psk52EY9ydvndk/qzxDICQkXrgQWjQBgpT5QIrS0NzM
K77/G23n8g/fvDtua6sTI0bqH+all0dczvuv0NrPQVyXGT4+CeeRGx2qwrGAyAdt
Ey69UV5ViV5jlQZzTx4eeMMxb/o/kUaHG/szpp6Ckec2d2EIn8Fna7tjCEoJpjSv
YFgBMtUCDTBldcF4cgIhFsxBLX0x921W0kPVROx2/MMSEaCsMNa9gvSGN4U2oir9
r3iswcKEXoQyCOKMhovkMbsBqlTfY9Eb4hsSwop+Qk/uduVKljtSnAo7kEJM/4CK
k3hfEqnSLmuPc/2IbzyYTsFYwFQ6BaMcGDL8u7xEa3z8ThXr66gb4saKoHmRsCsr
tq2FE1xTGxXtWvgX8HVxdZ02Utb9BA+HFFnb1Ni8ygaD5szXspyirHRYsvrISt7i
BrToRAtFm9QL61PIhultaIyfSO0kWTYzTA==
-----END CERTIFICATE-----
