Certificate:
    Data:
        Version: 3 (0x2)
        Serial Number: 7 (0x7)
        Signature Algorithm: sha1WithRSAEncryption
        Issuer: C=BA, ST=RS, L=Banja Luka, O=Elektrotehnicki fakultet, OU=ETF, CN=CA_tijelo/emailAddress=ca@mail.com
        Validity
            Not Before: Jan 22 10:39:23 2024 GMT
            Not After : Jan 21 10:39:23 2025 GMT
        Subject: C=BA, ST=RS, O=BL, OU=BL, CN=drakena/emailAddress=drakena2
        Subject Public Key Info:
            Public Key Algorithm: rsaEncryption
                RSA Public-Key: (4096 bit)
                Modulus:
                    00:b8:2d:de:8a:08:57:5b:1c:de:77:69:cd:05:15:
                    fb:0a:c0:8a:cc:3d:41:6c:27:18:a3:e6:6a:be:fa:
                    01:63:ee:70:4e:ea:46:72:de:14:26:57:5a:a9:fe:
                    0b:4b:89:28:3e:5c:4d:72:72:e1:d7:6f:22:3e:e7:
                    67:08:71:45:dc:a2:4c:b9:4b:55:3e:9d:97:31:55:
                    ee:92:06:28:c6:8e:2f:49:b4:12:19:ea:91:5d:37:
                    f8:29:e4:a1:4b:84:12:d9:73:2b:c2:58:5a:13:ba:
                    b3:5e:18:93:d8:a4:5d:1e:d2:d1:b7:07:0a:da:9f:
                    b9:8a:25:10:7a:81:eb:0f:82:c3:2f:0f:78:9a:a9:
                    3f:e8:2f:92:5c:2a:3d:3f:26:58:7c:0d:49:2c:08:
                    16:4d:67:fa:5a:48:60:b5:c7:73:d1:6e:7f:e2:57:
                    82:80:9f:4f:4a:d8:66:8c:7a:06:ff:a5:5f:d7:59:
                    a7:bf:b6:f2:d7:78:50:a1:46:88:8c:21:81:ad:b7:
                    73:27:af:11:58:e4:ec:33:01:26:4a:e9:dc:01:6c:
                    a3:bd:fc:f6:f5:95:cd:d3:ab:b2:b4:8c:16:61:ad:
                    e7:2a:3b:f6:ba:68:d6:1f:56:6a:f1:0c:e5:81:7d:
                    44:36:28:b3:80:31:b3:73:74:48:8f:1f:44:8b:37:
                    e8:77:10:4f:e7:f5:61:2c:79:b1:1d:27:7f:72:90:
                    b1:f8:d1:5a:92:a1:95:e8:03:08:df:48:7c:8e:ab:
                    68:8c:d2:bc:6a:7c:22:02:2f:7a:77:32:93:50:7e:
                    da:dd:1a:92:ff:e5:e5:a3:6f:d5:3b:e6:af:d5:17:
                    2a:4d:70:d8:11:72:6f:06:80:36:3c:7b:c1:c4:6c:
                    ca:c1:f3:52:eb:d4:62:6e:80:7b:92:97:ae:41:e8:
                    33:e9:6d:2d:41:b8:df:ac:0b:52:e5:65:15:ce:58:
                    78:64:28:45:4e:0c:e8:5b:46:5a:28:de:13:4e:fd:
                    f3:cd:6c:f5:d9:31:5b:a5:53:ad:94:18:b3:15:32:
                    ed:54:f4:4f:de:d0:af:f6:20:0a:51:69:cb:c2:f6:
                    05:4f:2e:f8:ed:7e:14:84:10:cd:6a:d8:93:a7:c5:
                    ab:6d:75:6e:9e:6a:77:55:09:60:d7:f3:94:8f:fc:
                    6d:51:ad:19:5e:f3:12:5f:b2:08:b7:01:85:91:b2:
                    d1:eb:ae:98:fd:10:0f:cf:20:03:df:ab:58:f8:2d:
                    25:45:c4:b4:61:ae:dd:e9:94:fa:53:69:ce:77:bb:
                    d3:99:52:db:5f:58:1b:99:80:16:f8:55:55:9c:28:
                    eb:21:21:9e:0f:ba:6c:a9:df:29:0d:e7:e7:20:73:
                    f7:4e:49
                Exponent: 65537 (0x10001)
        X509v3 extensions:
            X509v3 Basic Constraints: 
                CA:FALSE
            X509v3 Key Usage: 
                Digital Signature
            X509v3 Extended Key Usage: 
                TLS Web Client Authentication, TLS Web Server Authentication
            Netscape Comment: 
                OpenSSL Generated Certificate
            X509v3 Subject Key Identifier: 
                0C:E5:0D:DF:F8:AA:ED:F1:9E:11:B6:0C:AD:70:36:1E:30:F5:C8:E0
            X509v3 Authority Key Identifier: 
                keyid:E1:C3:90:50:1C:40:C7:2F:11:19:E3:F0:60:56:47:C0:46:85:91:62

            X509v3 CRL Distribution Points: 

                Full Name:
                  URI:http://192.168.21.89/rootcrl.pem

    Signature Algorithm: sha1WithRSAEncryption
         0b:d1:8d:ac:67:db:5b:64:67:83:bd:de:39:26:3c:76:d3:ac:
         d1:45:7d:4e:8f:57:07:75:f2:7f:93:a8:81:98:f0:81:6b:f3:
         e2:29:50:51:cc:49:e6:51:33:3b:03:44:85:57:8e:45:19:15:
         2d:6e:f0:57:c8:06:9b:a0:4e:d0:eb:18:69:86:b0:fd:61:56:
         49:53:eb:f9:7d:7e:9f:04:b3:bb:55:96:98:80:67:07:d5:c9:
         df:d6:3c:a5:ef:72:2e:b2:fe:8b:ab:c7:b7:37:78:2a:e0:cc:
         fe:54:4f:57:3a:95:68:bf:50:e9:de:2e:88:5c:65:b0:bc:a6:
         db:bd:fa:50:c2:41:f1:46:2a:36:78:79:2f:6e:cd:fe:3c:af:
         42:20:df:9e:f2:9b:f1:3e:69:2f:be:11:a4:00:03:8c:b2:f1:
         d0:dc:88:dc:21:97:5a:51:e8:1e:bf:bd:12:34:27:8a:48:17:
         64:2e:68:8f:87:a0:8e:91:e0:5c:86:0d:ab:0f:58:08:32:96:
         b8:bc:aa:5d:19:17:51:7b:5e:60:7c:e5:fb:f2:31:84:27:ee:
         25:6e:3a:12:e2:9a:be:a9:65:e1:a8:6b:60:3f:45:e6:27:49:
         96:59:6a:6d:a6:4a:6c:f0:0f:8e:96:45:03:05:b6:6a:c4:d5:
         14:a7:ed:0e:38:3b:42:ab:e9:ed:7d:33:73:21:06:79:a6:44:
         e3:ea:b2:41:6a:e0:84:52:ab:6d:8c:d5:2a:fa:18:99:69:ba:
         e5:90:84:1e:ba:06:73:ee:0c:91:f9:7a:a2:7b:fb:74:5b:f6:
         a9:a9:ac:64:24:0d:c1:74:bd:95:50:0d:be:61:ce:b9:d0:e0:
         de:4e:c7:ff:0c:a4:8b:3c:aa:0b:3d:ab:dd:e4:77:98:3b:89:
         cd:e0:ba:39:fc:d4:43:7d:dd:b2:a5:9f:67:b8:ad:4a:b5:22:
         85:3b:1e:0d:0e:21:ed:92:bf:25:68:01:5c:a5:db:3a:a6:f0:
         ef:66:04:51:31:81:ef:1a:84:a0:2d:6c:f8:4f:79:4c:5d:c8:
         2e:8d:60:16:cd:fa:79:6b:73:ba:ca:ac:8f:98:6e:f9:da:10:
         d8:c3:4b:d4:9b:58:44:77:c4:f8:98:b1:3e:4b:30:da:c1:4d:
         09:6f:0b:dc:57:fa:73:29:fd:cf:68:79:75:94:b4:63:eb:bf:
         8f:c5:0e:ab:fc:77:bf:87:d8:3a:87:51:af:39:4b:ae:02:6c:
         18:48:4c:4e:e8:9f:f9:b4:61:a6:49:65:64:d8:f6:ce:af:38:
         ab:a1:58:a2:c8:73:dd:81:b0:48:ad:24:76:c6:30:52:4d:ca:
         6f:9a:59:27:dc:6b:24:d8
-----BEGIN CERTIFICATE-----
MIIGRzCCBC+gAwIBAgIBBzANBgkqhkiG9w0BAQUFADCBkDELMAkGA1UEBhMCQkEx
CzAJBgNVBAgTAlJTMRMwEQYDVQQHEwpCYW5qYSBMdWthMSEwHwYDVQQKExhFbGVr
dHJvdGVobmlja2kgZmFrdWx0ZXQxDDAKBgNVBAsTA0VURjESMBAGA1UEAxQJQ0Ff
dGlqZWxvMRowGAYJKoZIhvcNAQkBFgtjYUBtYWlsLmNvbTAeFw0yNDAxMjIxMDM5
MjNaFw0yNTAxMjExMDM5MjNaMF8xCzAJBgNVBAYTAkJBMQswCQYDVQQIEwJSUzEL
MAkGA1UEChMCQkwxCzAJBgNVBAsTAkJMMRAwDgYDVQQDEwdkcmFrZW5hMRcwFQYJ
KoZIhvcNAQkBFghkcmFrZW5hMjCCAiIwDQYJKoZIhvcNAQEBBQADggIPADCCAgoC
ggIBALgt3ooIV1sc3ndpzQUV+wrAisw9QWwnGKPmar76AWPucE7qRnLeFCZXWqn+
C0uJKD5cTXJy4ddvIj7nZwhxRdyiTLlLVT6dlzFV7pIGKMaOL0m0EhnqkV03+Cnk
oUuEEtlzK8JYWhO6s14Yk9ikXR7S0bcHCtqfuYolEHqB6w+Cwy8PeJqpP+gvklwq
PT8mWHwNSSwIFk1n+lpIYLXHc9Fuf+JXgoCfT0rYZox6Bv+lX9dZp7+28td4UKFG
iIwhga23cyevEVjk7DMBJkrp3AFso7389vWVzdOrsrSMFmGt5yo79rpo1h9WavEM
5YF9RDYos4Axs3N0SI8fRIs36HcQT+f1YSx5sR0nf3KQsfjRWpKhlegDCN9IfI6r
aIzSvGp8IgIvencyk1B+2t0akv/l5aNv1Tvmr9UXKk1w2BFybwaANjx7wcRsysHz
UuvUYm6Ae5KXrkHoM+ltLUG436wLUuVlFc5YeGQoRU4M6FtGWijeE079881s9dkx
W6VTrZQYsxUy7VT0T97Qr/YgClFpy8L2BU8u+O1+FIQQzWrYk6fFq211bp5qd1UJ
YNfzlI/8bVGtGV7zEl+yCLcBhZGy0euumP0QD88gA9+rWPgtJUXEtGGu3emU+lNp
zne705lS219YG5mAFvhVVZwo6yEhng+6bKnfKQ3n5yBz905JAgMBAAGjgdswgdgw
CQYDVR0TBAIwADALBgNVHQ8EBAMCB4AwHQYDVR0lBBYwFAYIKwYBBQUHAwIGCCsG
AQUFBwMBMCwGCWCGSAGG+EIBDQQfFh1PcGVuU1NMIEdlbmVyYXRlZCBDZXJ0aWZp
Y2F0ZTAdBgNVHQ4EFgQUDOUN3/iq7fGeEbYMrXA2HjD1yOAwHwYDVR0jBBgwFoAU
4cOQUBxAxy8RGePwYFZHwEaFkWIwMQYDVR0fBCowKDAmoCSgIoYgaHR0cDovLzE5
Mi4xNjguMjEuODkvcm9vdGNybC5wZW0wDQYJKoZIhvcNAQEFBQADggIBAAvRjaxn
21tkZ4O93jkmPHbTrNFFfU6PVwd18n+TqIGY8IFr8+IpUFHMSeZRMzsDRIVXjkUZ
FS1u8FfIBpugTtDrGGmGsP1hVklT6/l9fp8Es7tVlpiAZwfVyd/WPKXvci6y/our
x7c3eCrgzP5UT1c6lWi/UOneLohcZbC8ptu9+lDCQfFGKjZ4eS9uzf48r0Ig357y
m/E+aS++EaQAA4yy8dDciNwhl1pR6B6/vRI0J4pIF2QuaI+HoI6R4FyGDasPWAgy
lri8ql0ZF1F7XmB85fvyMYQn7iVuOhLimr6pZeGoa2A/ReYnSZZZam2mSmzwD46W
RQMFtmrE1RSn7Q44O0Kr6e19M3MhBnmmROPqskFq4IRSq22M1Sr6GJlpuuWQhB66
BnPuDJH5eqJ7+3Rb9qmprGQkDcF0vZVQDb5hzrnQ4N5Ox/8MpIs8qgs9q93kd5g7
ic3gujn81EN93bKln2e4rUq1IoU7Hg0OIe2SvyVoAVyl2zqm8O9mBFExge8ahKAt
bPhPeUxdyC6NYBbN+nlrc7rKrI+YbvnaENjDS9SbWER3xPiYsT5LMNrBTQlvC9xX
+nMp/c9oeXWUtGPrv4/FDqv8d7+H2DqHUa85S64CbBhITE7on/m0YaZJZWTY9s6v
OKuhWKLIc92BsEitJHbGMFJNym+aWSfcayTY
-----END CERTIFICATE-----
