Certificate:
    Data:
        Version: 3 (0x2)
        Serial Number: 9 (0x9)
        Signature Algorithm: sha1WithRSAEncryption
        Issuer: C=BA, ST=RS, L=Banja Luka, O=Elektrotehnicki fakultet, OU=ETF, CN=CA_tijelo/emailAddress=ca@mail.com
        Validity
            Not Before: Jan 22 12:40:57 2024 GMT
            Not After : Jan 21 12:40:57 2025 GMT
        Subject: C=US, ST=sd, O=hog, OU=hog, CN=hari/emailAddress=hari
        Subject Public Key Info:
            Public Key Algorithm: rsaEncryption
                RSA Public-Key: (4096 bit)
                Modulus:
                    00:c3:82:5f:2e:a0:9e:48:0d:b6:fe:e4:50:92:7f:
                    9e:ff:1d:f8:ce:c4:ad:12:2d:5c:71:5b:f9:19:a1:
                    ed:ca:d6:93:1c:85:69:6c:d2:7e:ac:cf:be:f4:44:
                    5e:95:22:08:19:6a:38:8d:58:07:f3:9a:a9:47:6f:
                    07:56:e0:08:5a:7e:41:4b:d0:0a:03:19:dd:0e:87:
                    e6:fa:88:80:82:81:9c:df:a7:d7:41:4e:a0:eb:bf:
                    73:85:74:7a:27:25:d3:63:57:8a:9e:7d:03:b9:47:
                    8f:6b:b9:26:59:46:c9:93:1f:d9:a6:97:b6:1c:d7:
                    ad:b3:63:c4:19:af:33:74:da:c2:a7:3a:00:03:2a:
                    ce:72:4c:c4:76:13:33:b7:4b:a8:d8:5e:03:ed:98:
                    14:e3:d3:43:43:82:ad:d5:2b:ae:34:d5:af:77:21:
                    62:e9:90:3a:9f:40:6b:b8:f9:e7:f4:6b:23:03:46:
                    e6:0f:a2:87:e4:32:24:7c:53:1d:13:18:46:58:94:
                    ec:f4:ee:32:a6:bd:7f:c7:89:25:cd:c4:58:6c:d9:
                    da:a6:db:6d:d1:93:4a:4e:ec:b5:c0:14:c3:2c:8e:
                    93:18:ff:ab:15:90:75:7c:c8:60:7a:f3:df:c7:90:
                    cf:21:ba:69:8e:4f:43:2d:31:af:0e:bb:d0:23:54:
                    3e:b4:6c:6a:28:74:23:ca:5f:03:07:ba:1c:d6:e4:
                    7f:7d:6c:f1:14:51:4d:d9:db:79:38:7c:43:74:3c:
                    3e:4f:bc:35:c6:e9:fe:7c:a4:d3:17:69:13:43:f4:
                    55:64:b5:fa:69:00:68:61:d8:18:cf:eb:07:1d:3a:
                    5b:d9:ea:2f:6a:91:84:ba:1c:07:08:70:ed:55:e6:
                    82:be:87:8c:59:23:09:99:bf:e8:ad:8c:2a:95:1e:
                    f7:39:06:f1:02:b6:a7:82:e2:f5:1c:72:6c:57:45:
                    b1:c5:8b:47:09:13:a3:9b:1c:ae:57:3a:9a:79:00:
                    4e:ec:d1:b6:6f:d0:aa:c3:1a:78:33:06:6a:b1:fc:
                    b2:89:a0:01:87:9f:25:3d:d6:65:a6:29:9c:d2:ee:
                    1c:40:47:b4:b3:f3:d0:a6:90:59:4a:f5:dd:b2:d7:
                    98:10:c2:bb:72:52:6e:5a:c7:e1:f8:3c:1a:06:5f:
                    5c:4d:cf:03:b6:5e:0d:41:e2:cc:89:70:2f:35:6f:
                    42:3c:17:14:0f:7e:16:14:7f:c4:50:9d:0b:a9:be:
                    6e:d3:78:04:f0:b7:2d:13:c7:05:f2:76:29:11:79:
                    e0:3c:56:8f:e3:c3:f0:84:f8:8d:63:b8:e8:8a:2a:
                    32:66:a9:db:c6:13:8d:52:18:b9:31:50:7d:e1:69:
                    5c:c4:cb
                Exponent: 65537 (0x10001)
        X509v3 extensions:
            X509v3 Basic Constraints: 
                CA:FALSE
            X509v3 Key Usage: 
                Digital Signature
            X509v3 Extended Key Usage: 
                TLS Web Client Authentication, TLS Web Server Authentication
            Netscape Comment: 
                OpenSSL Generated Certificate
            X509v3 Subject Key Identifier: 
                BB:47:89:B3:03:82:40:08:78:39:27:E5:C8:A2:AE:B7:93:5A:B2:82
            X509v3 Authority Key Identifier: 
                keyid:E1:C3:90:50:1C:40:C7:2F:11:19:E3:F0:60:56:47:C0:46:85:91:62

            X509v3 CRL Distribution Points: 

                Full Name:
                  URI:http://192.168.21.89/rootcrl.pem

    Signature Algorithm: sha1WithRSAEncryption
         6f:f5:95:6e:4d:ba:81:87:8a:94:50:f9:8f:c5:f4:0f:b0:e8:
         72:16:9d:81:2e:b7:3e:e6:a9:d1:ac:3e:49:26:3a:da:ce:b6:
         52:cd:6e:c7:bd:2c:3c:28:34:62:28:9e:54:07:d6:9d:7f:7c:
         34:cf:fb:cb:1a:01:12:b4:39:54:d5:17:91:33:1a:94:c2:9a:
         ed:c9:88:07:da:9f:da:37:ed:e0:fc:d2:b3:6f:e0:fc:98:eb:
         df:17:b7:c7:51:be:4f:37:d8:7a:36:e3:5c:dc:88:d5:3a:a4:
         47:43:d5:bd:db:35:09:4f:2f:cc:0f:de:62:d5:9a:8e:f4:91:
         47:f0:6c:54:9e:f8:74:af:a3:de:c0:7e:d0:63:47:ad:ce:74:
         e6:28:84:dc:f9:fd:ca:14:1d:42:7b:ea:70:5f:a0:1e:93:42:
         9d:a4:9c:4c:51:f2:3e:d3:f7:85:fa:ed:63:a2:bf:c8:5a:bf:
         39:04:83:5c:23:08:31:d5:e4:5a:55:4d:de:b3:00:b8:d7:31:
         ab:27:70:b0:d7:62:ac:ee:d6:5a:ff:17:91:45:91:16:19:60:
         6e:66:0d:d1:0c:b6:2b:9c:95:9e:4a:49:ed:c5:92:3c:0d:13:
         18:17:78:bf:34:02:f6:cb:d0:5e:df:8b:b5:49:fe:48:f8:27:
         02:d9:ce:7a:fe:e3:b9:1b:5f:c9:2f:05:9f:97:ad:69:ee:22:
         f1:c2:c2:ad:3d:d7:a9:55:6c:72:7b:b3:b7:25:13:80:b4:f1:
         d3:fb:7c:6b:4a:c6:23:61:a3:15:9d:c0:f6:ce:78:7c:06:75:
         e0:46:29:f1:84:68:b0:c8:17:c3:74:b0:70:94:41:99:a9:d6:
         04:5d:95:c7:62:97:8b:e3:71:82:c6:ff:a4:be:98:b8:fc:c9:
         3f:e4:29:4a:24:c2:ec:f3:8e:2e:de:8f:40:a1:6a:9c:3d:b2:
         4e:2d:71:76:bb:84:40:79:78:e6:f7:5c:9b:d7:98:5e:17:1c:
         bd:f8:52:3d:99:66:bd:89:7d:96:87:39:e7:64:c2:86:e6:59:
         6f:44:f3:53:6b:0c:25:4b:ba:cf:35:48:6c:c0:d9:f6:2a:3e:
         90:06:f2:a9:2a:30:89:b2:d9:54:cd:e9:e7:93:51:2b:a6:57:
         07:f5:e3:38:fe:c8:61:c0:b2:9b:b4:5d:5a:91:30:b4:3d:ca:
         3c:5c:57:f9:83:37:48:cb:47:92:c1:11:51:ed:2f:68:82:74:
         31:a1:c6:b6:27:a7:f9:7b:53:38:11:29:20:9a:1f:6c:07:e3:
         2d:98:19:5e:43:80:70:55:b4:6c:a9:59:a5:77:2a:5c:c3:d4:
         9d:f5:6f:0c:db:6e:36:de
-----BEGIN CERTIFICATE-----
MIIGQjCCBCqgAwIBAgIBCTANBgkqhkiG9w0BAQUFADCBkDELMAkGA1UEBhMCQkEx
CzAJBgNVBAgTAlJTMRMwEQYDVQQHEwpCYW5qYSBMdWthMSEwHwYDVQQKExhFbGVr
dHJvdGVobmlja2kgZmFrdWx0ZXQxDDAKBgNVBAsTA0VURjESMBAGA1UEAxQJQ0Ff
dGlqZWxvMRowGAYJKoZIhvcNAQkBFgtjYUBtYWlsLmNvbTAeFw0yNDAxMjIxMjQw
NTdaFw0yNTAxMjExMjQwNTdaMFoxCzAJBgNVBAYTAlVTMQswCQYDVQQIEwJzZDEM
MAoGA1UEChMDaG9nMQwwCgYDVQQLEwNob2cxDTALBgNVBAMTBGhhcmkxEzARBgkq
hkiG9w0BCQEWBGhhcmkwggIiMA0GCSqGSIb3DQEBAQUAA4ICDwAwggIKAoICAQDD
gl8uoJ5IDbb+5FCSf57/HfjOxK0SLVxxW/kZoe3K1pMchWls0n6sz770RF6VIggZ
ajiNWAfzmqlHbwdW4AhafkFL0AoDGd0Oh+b6iICCgZzfp9dBTqDrv3OFdHonJdNj
V4qefQO5R49ruSZZRsmTH9mml7Yc162zY8QZrzN02sKnOgADKs5yTMR2EzO3S6jY
XgPtmBTj00NDgq3VK6401a93IWLpkDqfQGu4+ef0ayMDRuYPoofkMiR8Ux0TGEZY
lOz07jKmvX/HiSXNxFhs2dqm223Rk0pO7LXAFMMsjpMY/6sVkHV8yGB689/HkM8h
ummOT0MtMa8Ou9AjVD60bGoodCPKXwMHuhzW5H99bPEUUU3Z23k4fEN0PD5PvDXG
6f58pNMXaRND9FVktfppAGhh2BjP6wcdOlvZ6i9qkYS6HAcIcO1V5oK+h4xZIwmZ
v+itjCqVHvc5BvECtqeC4vUccmxXRbHFi0cJE6ObHK5XOpp5AE7s0bZv0KrDGngz
Bmqx/LKJoAGHnyU91mWmKZzS7hxAR7Sz89CmkFlK9d2y15gQwrtyUm5ax+H4PBoG
X1xNzwO2Xg1B4syJcC81b0I8FxQPfhYUf8RQnQupvm7TeATwty0TxwXydikReeA8
Vo/jw/CE+I1juOiKKjJmqdvGE41SGLkxUH3haVzEywIDAQABo4HbMIHYMAkGA1Ud
EwQCMAAwCwYDVR0PBAQDAgeAMB0GA1UdJQQWMBQGCCsGAQUFBwMCBggrBgEFBQcD
ATAsBglghkgBhvhCAQ0EHxYdT3BlblNTTCBHZW5lcmF0ZWQgQ2VydGlmaWNhdGUw
HQYDVR0OBBYEFLtHibMDgkAIeDkn5ciirreTWrKCMB8GA1UdIwQYMBaAFOHDkFAc
QMcvERnj8GBWR8BGhZFiMDEGA1UdHwQqMCgwJqAkoCKGIGh0dHA6Ly8xOTIuMTY4
LjIxLjg5L3Jvb3RjcmwucGVtMA0GCSqGSIb3DQEBBQUAA4ICAQBv9ZVuTbqBh4qU
UPmPxfQPsOhyFp2BLrc+5qnRrD5JJjrazrZSzW7HvSw8KDRiKJ5UB9adf3w0z/vL
GgEStDlU1ReRMxqUwprtyYgH2p/aN+3g/NKzb+D8mOvfF7fHUb5PN9h6NuNc3IjV
OqRHQ9W92zUJTy/MD95i1ZqO9JFH8GxUnvh0r6PewH7QY0etznTmKITc+f3KFB1C
e+pwX6Aek0KdpJxMUfI+0/eF+u1jor/IWr85BINcIwgx1eRaVU3eswC41zGrJ3Cw
12Ks7tZa/xeRRZEWGWBuZg3RDLYrnJWeSkntxZI8DRMYF3i/NAL2y9Be34u1Sf5I
+CcC2c56/uO5G1/JLwWfl61p7iLxwsKtPdepVWxye7O3JROAtPHT+3xrSsYjYaMV
ncD2znh8BnXgRinxhGiwyBfDdLBwlEGZqdYEXZXHYpeL43GCxv+kvpi4/Mk/5ClK
JMLs844u3o9AoWqcPbJOLXF2u4RAeXjm91yb15heFxy9+FI9mWa9iX2WhznnZMKG
5llvRPNTawwlS7rPNUhswNn2Kj6QBvKpKjCJstlUzennk1ErplcH9eM4/shhwLKb
tF1akTC0Pco8XFf5gzdIy0eSwRFR7S9ognQxoca2J6f5e1M4ESkgmh9sB+MtmBle
Q4BwVbRsqVmldypcw9Sd9W8M22423g==
-----END CERTIFICATE-----
