Certificate:
    Data:
        Version: 3 (0x2)
        Serial Number: 11 (0xb)
        Signature Algorithm: sha1WithRSAEncryption
        Issuer: C=BA, ST=RS, L=Banja Luka, O=Elektrotehnicki fakultet, OU=ETF, CN=CA_tijelo/emailAddress=ca@mail.com
        Validity
            Not Before: Jan 22 14:13:12 2024 GMT
            Not After : Jan 21 14:13:12 2025 GMT
        Subject: C=jo, ST=joko, O=jok, OU=jok, CN=jok/emailAddress=jok
        Subject Public Key Info:
            Public Key Algorithm: rsaEncryption
                RSA Public-Key: (4096 bit)
                Modulus:
                    00:d3:f9:1c:bf:ac:22:18:ff:28:da:4c:09:1e:99:
                    37:37:b8:d9:d2:32:b3:3f:a5:55:ea:9b:18:6b:8b:
                    be:85:12:9d:8f:1e:0d:71:74:17:c3:96:76:87:1d:
                    4d:a0:46:ae:00:7e:e5:a6:ee:5b:61:fd:26:ea:43:
                    96:24:e2:98:15:ed:7b:e7:05:93:f1:ef:f5:16:67:
                    88:a1:87:64:71:59:fc:3f:8a:f2:9f:41:c4:c2:ae:
                    a8:1a:87:8f:51:6f:22:11:c0:98:1f:40:1a:f5:d8:
                    5b:44:5c:61:23:73:28:fa:48:20:52:4e:47:f5:64:
                    2a:1d:94:dd:23:27:f0:c1:f4:49:15:2b:14:51:0c:
                    02:52:df:24:ae:3e:5e:f7:3e:83:d6:e9:14:ad:9b:
                    05:18:66:d8:16:e2:27:54:6e:75:7b:fd:91:b7:9d:
                    28:f2:38:c1:5b:cd:2a:ed:af:9b:91:a7:70:c9:81:
                    ca:03:dd:45:d3:c5:03:c5:60:ed:3a:4d:1b:a4:3a:
                    75:e5:c7:6c:27:15:82:b5:90:71:28:1d:ea:e1:e3:
                    4b:81:54:ef:30:7a:62:b0:6c:eb:ea:51:d1:8a:16:
                    60:2f:16:cb:09:f5:54:e5:60:c4:79:3a:bb:ed:24:
                    40:25:ae:8c:8b:c3:0b:ff:57:0b:60:04:0a:13:db:
                    72:e8:52:56:60:e8:96:25:f5:e9:33:bc:6a:3b:20:
                    1b:25:4d:56:15:f8:90:4a:07:53:74:df:cf:3f:16:
                    1f:3c:44:88:27:84:90:d1:ee:80:10:10:5c:89:42:
                    97:2f:1c:8f:b1:c1:e9:41:2f:9c:2b:c2:8c:ff:94:
                    b6:fa:53:b3:82:e8:51:04:62:4d:87:1f:cd:62:2c:
                    5e:75:00:65:02:5d:9c:c5:f1:48:25:46:dc:df:86:
                    d9:d3:b3:81:dd:9f:c3:84:db:ea:79:9f:14:ff:ad:
                    ba:71:80:8a:2a:b1:23:eb:5a:25:68:e7:81:23:39:
                    2a:c7:90:1f:57:2a:75:72:e9:33:c2:7b:95:38:d4:
                    c8:7b:a9:80:10:4a:40:e9:5a:2f:1e:23:ca:63:c2:
                    d2:fb:b8:c0:a5:c7:d0:bb:0b:ee:96:f3:3b:1a:e8:
                    22:41:97:0f:0e:45:63:38:ed:06:41:b8:36:d2:62:
                    95:75:fe:07:05:9c:f6:08:25:f6:5f:16:a7:06:8e:
                    c4:84:06:e1:85:50:5f:44:b2:4e:cf:bd:72:64:df:
                    6a:55:24:11:25:07:7a:d9:ac:4a:02:55:89:bd:c2:
                    60:e4:c5:f8:77:90:f0:de:29:91:4c:44:99:ec:64:
                    21:4d:d5:e2:7a:be:f8:ab:6e:5f:33:13:84:5d:36:
                    cc:23:ad
                Exponent: 65537 (0x10001)
        X509v3 extensions:
            X509v3 Basic Constraints: 
                CA:FALSE
            X509v3 Key Usage: 
                Digital Signature
            X509v3 Extended Key Usage: 
                TLS Web Client Authentication, TLS Web Server Authentication
            Netscape Comment: 
                OpenSSL Generated Certificate
            X509v3 Subject Key Identifier: 
                7E:11:D2:DF:39:80:AA:3B:3C:D6:14:B7:59:71:4D:F9:0E:D1:57:B2
            X509v3 Authority Key Identifier: 
                keyid:E1:C3:90:50:1C:40:C7:2F:11:19:E3:F0:60:56:47:C0:46:85:91:62

            X509v3 CRL Distribution Points: 

                Full Name:
                  URI:http://192.168.21.89/rootcrl.pem

    Signature Algorithm: sha1WithRSAEncryption
         06:64:d5:9d:2f:51:be:9e:d9:7b:7a:1a:b7:c5:56:20:d8:40:
         17:c4:cc:62:cd:83:e4:ba:34:c6:f3:ba:f9:a1:be:fe:62:c9:
         52:f8:06:bc:d3:fb:8c:8f:1e:2a:73:a6:cc:aa:25:f6:48:c0:
         0a:18:ae:a0:2a:a1:00:5c:dd:a3:da:6b:e0:2d:c4:c9:94:81:
         39:9f:7d:0c:9b:eb:30:c0:df:3d:6d:3d:d3:d4:8f:0a:ac:5b:
         73:ca:d6:d5:84:5b:42:39:8c:a2:ab:81:f3:3a:8e:4a:0e:2d:
         9c:c4:c5:08:78:53:a7:24:e7:84:d7:d9:27:1c:61:ed:4d:6a:
         32:e0:86:ac:1e:bf:68:34:9f:3f:c7:a0:38:1e:5e:40:ee:ef:
         e7:9e:2e:d3:48:bd:fd:22:81:37:e9:a7:df:b4:c6:c6:fd:eb:
         6b:e9:1d:5e:b9:07:66:5c:af:7b:c9:f8:e0:61:29:d4:cd:f7:
         fb:0a:41:b0:97:5b:2f:41:c8:5c:c5:87:8d:64:c2:1c:17:72:
         3e:c7:97:09:34:e6:d2:b8:c9:f4:0d:24:64:56:17:ba:46:9b:
         8a:9d:1d:a7:d9:78:43:a6:4f:b3:ca:e2:0e:43:9b:9b:ff:aa:
         e8:35:6a:46:7f:48:07:e3:4e:14:57:3c:86:94:2c:23:a0:f7:
         67:61:b1:a1:86:fb:cf:98:79:ee:7f:0a:ea:7a:35:0b:67:af:
         3f:e4:f6:46:05:73:9d:d2:53:12:03:48:c3:44:bb:a5:f9:94:
         9c:0d:8a:ce:d0:90:0d:4b:1d:a3:bd:e7:28:3b:a5:f0:56:ce:
         bf:af:07:2d:08:92:60:f7:2c:45:b7:70:31:5e:b0:91:bc:7d:
         2f:74:2c:37:73:5a:f4:93:23:f1:0c:0b:21:ca:37:92:c9:72:
         c4:9b:cf:92:ed:b4:aa:93:f8:6c:a8:c3:a7:58:2e:2d:8d:d3:
         86:3f:b7:21:51:35:a6:6e:e0:47:0e:8b:89:29:1e:96:5e:ff:
         fa:e7:4d:73:65:66:a0:4b:dc:57:10:27:9c:96:b4:b6:65:c9:
         77:49:a5:56:9b:d8:d2:d1:0e:ad:c3:e9:1f:d9:55:53:16:6c:
         4f:4c:b0:b8:ce:08:3c:92:0f:52:88:d6:38:0b:38:e3:1a:98:
         a0:2e:c9:8c:e5:66:2c:24:53:04:00:62:f8:a0:4c:f5:64:be:
         50:8d:65:27:2b:50:f3:47:19:8c:02:b8:15:3b:d7:d3:65:05:
         cb:b3:bf:14:f4:8a:47:f6:6d:91:bd:5a:ff:f7:96:ca:ba:66:
         6b:d0:78:6b:16:3f:4f:a4:57:f1:26:fc:ab:4f:c8:ac:bb:70:
         da:ac:3b:e2:52:96:1b:bb
-----BEGIN CERTIFICATE-----
MIIGQjCCBCqgAwIBAgIBCzANBgkqhkiG9w0BAQUFADCBkDELMAkGA1UEBhMCQkEx
CzAJBgNVBAgTAlJTMRMwEQYDVQQHEwpCYW5qYSBMdWthMSEwHwYDVQQKExhFbGVr
dHJvdGVobmlja2kgZmFrdWx0ZXQxDDAKBgNVBAsTA0VURjESMBAGA1UEAxQJQ0Ff
dGlqZWxvMRowGAYJKoZIhvcNAQkBFgtjYUBtYWlsLmNvbTAeFw0yNDAxMjIxNDEz
MTJaFw0yNTAxMjExNDEzMTJaMFoxCzAJBgNVBAYTAmpvMQ0wCwYDVQQIEwRqb2tv
MQwwCgYDVQQKEwNqb2sxDDAKBgNVBAsTA2pvazEMMAoGA1UEAxMDam9rMRIwEAYJ
KoZIhvcNAQkBFgNqb2swggIiMA0GCSqGSIb3DQEBAQUAA4ICDwAwggIKAoICAQDT
+Ry/rCIY/yjaTAkemTc3uNnSMrM/pVXqmxhri76FEp2PHg1xdBfDlnaHHU2gRq4A
fuWm7lth/SbqQ5Yk4pgV7XvnBZPx7/UWZ4ihh2RxWfw/ivKfQcTCrqgah49RbyIR
wJgfQBr12FtEXGEjcyj6SCBSTkf1ZCodlN0jJ/DB9EkVKxRRDAJS3ySuPl73PoPW
6RStmwUYZtgW4idUbnV7/ZG3nSjyOMFbzSrtr5uRp3DJgcoD3UXTxQPFYO06TRuk
OnXlx2wnFYK1kHEoHerh40uBVO8wemKwbOvqUdGKFmAvFssJ9VTlYMR5OrvtJEAl
royLwwv/VwtgBAoT23LoUlZg6JYl9ekzvGo7IBslTVYV+JBKB1N0388/Fh88RIgn
hJDR7oAQEFyJQpcvHI+xwelBL5wrwoz/lLb6U7OC6FEEYk2HH81iLF51AGUCXZzF
8UglRtzfhtnTs4Hdn8OE2+p5nxT/rbpxgIoqsSPrWiVo54EjOSrHkB9XKnVy6TPC
e5U41Mh7qYAQSkDpWi8eI8pjwtL7uMClx9C7C+6W8zsa6CJBlw8ORWM47QZBuDbS
YpV1/gcFnPYIJfZfFqcGjsSEBuGFUF9Esk7PvXJk32pVJBElB3rZrEoCVYm9wmDk
xfh3kPDeKZFMRJnsZCFN1eJ6vvirbl8zE4RdNswjrQIDAQABo4HbMIHYMAkGA1Ud
EwQCMAAwCwYDVR0PBAQDAgeAMB0GA1UdJQQWMBQGCCsGAQUFBwMCBggrBgEFBQcD
ATAsBglghkgBhvhCAQ0EHxYdT3BlblNTTCBHZW5lcmF0ZWQgQ2VydGlmaWNhdGUw
HQYDVR0OBBYEFH4R0t85gKo7PNYUt1lxTfkO0VeyMB8GA1UdIwQYMBaAFOHDkFAc
QMcvERnj8GBWR8BGhZFiMDEGA1UdHwQqMCgwJqAkoCKGIGh0dHA6Ly8xOTIuMTY4
LjIxLjg5L3Jvb3RjcmwucGVtMA0GCSqGSIb3DQEBBQUAA4ICAQAGZNWdL1G+ntl7
ehq3xVYg2EAXxMxizYPkujTG87r5ob7+YslS+Aa80/uMjx4qc6bMqiX2SMAKGK6g
KqEAXN2j2mvgLcTJlIE5n30Mm+swwN89bT3T1I8KrFtzytbVhFtCOYyiq4HzOo5K
Di2cxMUIeFOnJOeE19knHGHtTWoy4IasHr9oNJ8/x6A4Hl5A7u/nni7TSL39IoE3
6afftMbG/etr6R1euQdmXK97yfjgYSnUzff7CkGwl1svQchcxYeNZMIcF3I+x5cJ
NObSuMn0DSRkVhe6RpuKnR2n2XhDpk+zyuIOQ5ub/6roNWpGf0gH404UVzyGlCwj
oPdnYbGhhvvPmHnufwrqejULZ68/5PZGBXOd0lMSA0jDRLul+ZScDYrO0JANSx2j
vecoO6XwVs6/rwctCJJg9yxFt3AxXrCRvH0vdCw3c1r0kyPxDAshyjeSyXLEm8+S
7bSqk/hsqMOnWC4tjdOGP7chUTWmbuBHDouJKR6WXv/6501zZWagS9xXECeclrS2
Zcl3SaVWm9jS0Q6tw+kf2VVTFmxPTLC4zgg8kg9SiNY4CzjjGpigLsmM5WYsJFME
AGL4oEz1ZL5QjWUnK1DzRxmMArgVO9fTZQXLs78U9IpH9m2RvVr/95bKumZr0Hhr
Fj9PpFfxJvyrT8isu3DarDviUpYbuw==
-----END CERTIFICATE-----
