Certificate:
    Data:
        Version: 3 (0x2)
        Serial Number: 12 (0xc)
        Signature Algorithm: sha1WithRSAEncryption
        Issuer: C=BA, ST=RS, L=Banja Luka, O=Elektrotehnicki fakultet, OU=ETF, CN=CA_tijelo/emailAddress=ca@mail.com
        Validity
            Not Before: Jan 22 14:16:05 2024 GMT
            Not After : Jan 21 14:16:05 2025 GMT
        Subject: C=ba, ST=bas, O=bas, OU=bas, CN=jele/emailAddress=jele
        Subject Public Key Info:
            Public Key Algorithm: rsaEncryption
                RSA Public-Key: (4096 bit)
                Modulus:
                    00:bd:6e:5f:82:9e:92:6b:5b:0a:27:e8:12:e6:6a:
                    49:44:50:6c:4c:b0:1e:a2:42:b9:77:2f:c2:af:e1:
                    94:33:05:29:ed:0e:13:75:0b:92:e4:5a:00:d1:4c:
                    3f:6f:e8:96:0e:03:15:5b:4e:15:23:b9:9d:6d:31:
                    19:cd:1e:8b:50:d5:c4:03:1a:7b:ce:15:4c:6b:da:
                    3c:76:39:c1:bd:ad:b9:23:21:e2:91:17:50:9c:81:
                    81:e7:87:fd:60:00:98:18:f9:ec:67:bd:e7:60:6a:
                    ef:6a:57:9b:fd:10:f7:19:ee:78:a1:2d:7d:d9:1a:
                    78:16:3e:aa:a5:5a:2b:56:1c:c7:58:22:89:36:1d:
                    ec:49:39:59:06:7f:30:f2:e8:e9:3f:b4:0d:0c:cf:
                    77:bd:af:f1:b5:d0:78:bc:54:41:41:f1:cc:7c:98:
                    bd:aa:06:7d:fd:27:33:b0:92:d5:bb:1e:7a:d3:c8:
                    f5:0e:29:14:3d:aa:b7:cf:64:48:a9:f6:f2:3f:57:
                    08:e2:88:f2:0e:32:30:be:cf:24:b3:d1:31:b6:fe:
                    1b:39:9d:84:13:c5:11:88:13:ed:0e:fd:30:d9:f9:
                    7f:b8:ee:4d:4b:9e:e9:cb:8e:73:a0:f3:73:d2:bc:
                    8d:69:c6:c2:99:b0:37:5c:60:9d:52:9a:7b:02:5e:
                    37:d7:fa:4b:22:ae:3f:26:7a:3e:82:c5:37:64:9a:
                    d7:e2:ae:7d:a6:ce:8a:db:ed:df:0d:69:48:6b:58:
                    30:54:94:77:ff:c8:75:3f:5e:ec:f6:45:04:bf:b4:
                    c8:87:92:2b:90:0c:cb:e2:f7:08:42:e8:0c:20:92:
                    bc:78:9a:e7:6e:10:22:7e:9d:0d:04:f7:58:d4:8a:
                    4f:62:6e:7f:29:6d:e1:59:15:f6:21:ac:98:f9:df:
                    b8:7e:d7:d1:3b:fb:fb:ab:d7:e4:c7:f2:92:7e:cc:
                    87:e8:28:8b:e6:1e:12:0b:1a:a9:01:16:c9:3d:05:
                    5d:a1:3c:b7:5d:02:b0:ef:a0:10:7b:6e:c0:e2:44:
                    ba:80:51:db:ed:ba:11:65:69:ae:df:65:86:5e:68:
                    c6:35:7c:55:bd:be:b9:de:e0:11:da:e5:32:79:bf:
                    4d:9e:a7:f8:1d:76:b0:fd:d2:5c:d1:d9:a9:91:5a:
                    fa:23:a4:45:b4:6a:b9:84:29:04:ad:32:ac:c1:e6:
                    85:fa:ea:78:7b:e4:84:43:bf:45:f3:3a:12:8c:a3:
                    32:40:85:bc:b8:e3:9a:f1:e2:5a:b8:fd:39:dd:f3:
                    03:ba:92:af:ee:a2:25:96:5b:17:d1:92:3d:bb:af:
                    9b:d5:a4:15:71:aa:06:64:c9:b0:41:b2:d4:cb:79:
                    a6:8e:c1
                Exponent: 65537 (0x10001)
        X509v3 extensions:
            X509v3 Basic Constraints: 
                CA:FALSE
            X509v3 Key Usage: 
                Digital Signature
            X509v3 Extended Key Usage: 
                TLS Web Client Authentication, TLS Web Server Authentication
            Netscape Comment: 
                OpenSSL Generated Certificate
            X509v3 Subject Key Identifier: 
                7C:94:86:26:22:83:93:F8:6F:26:1D:22:35:D6:1A:2C:13:93:C3:EE
            X509v3 Authority Key Identifier: 
                keyid:E1:C3:90:50:1C:40:C7:2F:11:19:E3:F0:60:56:47:C0:46:85:91:62

            X509v3 CRL Distribution Points: 

                Full Name:
                  URI:http://192.168.21.89/rootcrl.pem

    Signature Algorithm: sha1WithRSAEncryption
         2a:4c:bb:86:0d:b5:fa:dd:96:57:c5:c3:57:f8:10:2c:a3:a4:
         b3:93:ff:4a:ac:50:3d:ff:b4:8b:6b:01:7b:59:79:3a:ac:6d:
         8e:12:6a:cc:ff:17:05:17:09:32:f9:69:d5:21:81:01:57:41:
         80:1c:a8:0e:6c:23:1d:ee:ce:19:4b:73:03:10:a1:46:9d:40:
         4b:fa:43:0d:b5:89:b8:81:01:3d:4e:80:6a:41:17:07:a2:b6:
         da:49:01:9f:4e:b1:e4:6b:be:83:9f:39:4a:4c:de:b0:5c:d8:
         4b:b2:3b:84:e1:91:b7:87:07:20:c3:d7:84:de:1c:73:47:60:
         f4:7d:27:f6:d1:60:63:92:e4:eb:a5:d2:c8:f9:84:51:fe:30:
         4a:86:51:9d:d3:d0:cd:30:fa:f6:eb:fa:06:c6:ca:5d:ff:d6:
         0e:ab:5e:4e:84:bd:dd:a3:7d:a6:e3:61:a0:08:19:af:15:64:
         bb:09:9e:a7:95:6a:fa:5b:46:2a:d0:ea:bc:f6:a4:48:1e:f9:
         b4:7e:13:84:ba:40:30:e1:1e:fb:49:df:ce:1b:29:ef:1a:63:
         00:5a:23:e3:c9:4c:35:82:5e:e8:c3:88:48:75:34:72:b6:c7:
         f9:be:9b:69:4c:f5:17:2d:b2:32:00:08:2d:20:7a:e6:70:d1:
         e2:0c:16:5f:bd:fa:1d:92:32:c4:26:cb:d2:00:38:98:ce:92:
         af:83:ed:88:c3:b0:d4:3b:f7:d4:84:31:f8:fa:a7:34:43:94:
         45:27:ca:a6:ff:0d:ef:56:a6:5e:fa:22:12:6c:78:ab:b1:19:
         72:bf:45:6a:ae:50:3d:45:13:62:a9:8f:9d:d5:37:63:84:be:
         2c:ef:b4:8d:98:ad:4b:01:4b:80:ca:26:91:db:bb:6a:1e:46:
         f3:76:67:8d:7b:c6:d9:61:95:cd:0d:d4:a0:b9:08:44:9b:de:
         52:d4:fd:17:90:e1:9d:f0:ca:78:66:97:1b:7a:61:f5:97:00:
         0c:e8:46:d8:86:6e:57:c0:79:53:cb:41:aa:a6:32:56:bb:82:
         cd:89:84:1c:e4:df:f9:69:87:84:36:cd:2e:44:e9:c7:c5:9b:
         7e:b2:0e:bf:0e:e9:10:a4:22:fe:8f:1d:05:54:13:37:15:9a:
         5c:5b:7a:6f:59:9c:d2:35:55:41:9c:78:4c:da:7c:98:7a:02:
         c8:6c:2a:33:c0:bd:5d:fc:bc:40:d6:0a:a0:a9:d8:c6:06:fc:
         33:45:1e:46:4a:3b:fb:4e:df:b9:5a:0d:a3:fc:d0:34:1e:5e:
         d6:24:8d:25:e9:34:fa:a0:7a:0c:48:a5:8b:6b:3b:bd:86:fc:
         cd:8c:66:c2:cb:62:99:e6
-----BEGIN CERTIFICATE-----
MIIGQzCCBCugAwIBAgIBDDANBgkqhkiG9w0BAQUFADCBkDELMAkGA1UEBhMCQkEx
CzAJBgNVBAgTAlJTMRMwEQYDVQQHEwpCYW5qYSBMdWthMSEwHwYDVQQKExhFbGVr
dHJvdGVobmlja2kgZmFrdWx0ZXQxDDAKBgNVBAsTA0VURjESMBAGA1UEAxQJQ0Ff
dGlqZWxvMRowGAYJKoZIhvcNAQkBFgtjYUBtYWlsLmNvbTAeFw0yNDAxMjIxNDE2
MDVaFw0yNTAxMjExNDE2MDVaMFsxCzAJBgNVBAYTAmJhMQwwCgYDVQQIEwNiYXMx
DDAKBgNVBAoTA2JhczEMMAoGA1UECxMDYmFzMQ0wCwYDVQQDEwRqZWxlMRMwEQYJ
KoZIhvcNAQkBFgRqZWxlMIICIjANBgkqhkiG9w0BAQEFAAOCAg8AMIICCgKCAgEA
vW5fgp6Sa1sKJ+gS5mpJRFBsTLAeokK5dy/Cr+GUMwUp7Q4TdQuS5FoA0Uw/b+iW
DgMVW04VI7mdbTEZzR6LUNXEAxp7zhVMa9o8djnBva25IyHikRdQnIGB54f9YACY
GPnsZ73nYGrvaleb/RD3Ge54oS192Rp4Fj6qpVorVhzHWCKJNh3sSTlZBn8w8ujp
P7QNDM93va/xtdB4vFRBQfHMfJi9qgZ9/SczsJLVux5608j1DikUPaq3z2RIqfby
P1cI4ojyDjIwvs8ks9Extv4bOZ2EE8URiBPtDv0w2fl/uO5NS57py45zoPNz0ryN
acbCmbA3XGCdUpp7Al431/pLIq4/Jno+gsU3ZJrX4q59ps6K2+3fDWlIa1gwVJR3
/8h1P17s9kUEv7TIh5IrkAzL4vcIQugMIJK8eJrnbhAifp0NBPdY1IpPYm5/KW3h
WRX2IayY+d+4ftfRO/v7q9fkx/KSfsyH6CiL5h4SCxqpARbJPQVdoTy3XQKw76AQ
e27A4kS6gFHb7boRZWmu32WGXmjGNXxVvb653uAR2uUyeb9Nnqf4HXaw/dJc0dmp
kVr6I6RFtGq5hCkErTKsweaF+up4e+SEQ79F8zoSjKMyQIW8uOOa8eJauP053fMD
upKv7qIlllsX0ZI9u6+b1aQVcaoGZMmwQbLUy3mmjsECAwEAAaOB2zCB2DAJBgNV
HRMEAjAAMAsGA1UdDwQEAwIHgDAdBgNVHSUEFjAUBggrBgEFBQcDAgYIKwYBBQUH
AwEwLAYJYIZIAYb4QgENBB8WHU9wZW5TU0wgR2VuZXJhdGVkIENlcnRpZmljYXRl
MB0GA1UdDgQWBBR8lIYmIoOT+G8mHSI11hosE5PD7jAfBgNVHSMEGDAWgBThw5BQ
HEDHLxEZ4/BgVkfARoWRYjAxBgNVHR8EKjAoMCagJKAihiBodHRwOi8vMTkyLjE2
OC4yMS44OS9yb290Y3JsLnBlbTANBgkqhkiG9w0BAQUFAAOCAgEAKky7hg21+t2W
V8XDV/gQLKOks5P/SqxQPf+0i2sBe1l5OqxtjhJqzP8XBRcJMvlp1SGBAVdBgByo
DmwjHe7OGUtzAxChRp1AS/pDDbWJuIEBPU6AakEXB6K22kkBn06x5Gu+g585Skze
sFzYS7I7hOGRt4cHIMPXhN4cc0dg9H0n9tFgY5Lk66XSyPmEUf4wSoZRndPQzTD6
9uv6BsbKXf/WDqteToS93aN9puNhoAgZrxVkuwmep5Vq+ltGKtDqvPakSB75tH4T
hLpAMOEe+0nfzhsp7xpjAFoj48lMNYJe6MOISHU0crbH+b6baUz1Fy2yMgAILSB6
5nDR4gwWX736HZIyxCbL0gA4mM6Sr4PtiMOw1Dv31IQx+PqnNEOURSfKpv8N71am
XvoiEmx4q7EZcr9Faq5QPUUTYqmPndU3Y4S+LO+0jZitSwFLgMomkdu7ah5G83Zn
jXvG2WGVzQ3UoLkIRJveUtT9F5DhnfDKeGaXG3ph9ZcADOhG2IZuV8B5U8tBqqYy
VruCzYmEHOTf+WmHhDbNLkTpx8WbfrIOvw7pEKQi/o8dBVQTNxWaXFt6b1mc0jVV
QZx4TNp8mHoCyGwqM8C9Xfy8QNYKoKnYxgb8M0UeRko7+07fuVoNo/zQNB5e1iSN
Jek0+qB6DEili2s7vYb8zYxmwstimeY=
-----END CERTIFICATE-----
