Certificate:
    Data:
        Version: 3 (0x2)
        Serial Number: 13 (0xd)
        Signature Algorithm: sha1WithRSAEncryption
        Issuer: C=BA, ST=RS, L=Banja Luka, O=Elektrotehnicki fakultet, OU=ETF, CN=CA_tijelo/emailAddress=ca@mail.com
        Validity
            Not Before: Jan 22 14:18:12 2024 GMT
            Not After : Jan 21 14:18:12 2025 GMT
        Subject: C=an, ST=ana, O=ana, OU=ana, CN=ana/emailAddress=ana
        Subject Public Key Info:
            Public Key Algorithm: rsaEncryption
                RSA Public-Key: (4096 bit)
                Modulus:
                    00:aa:75:bf:d6:30:17:8d:22:48:bb:7f:ff:12:c4:
                    a7:a7:e2:7d:32:eb:ee:64:ce:4e:be:f4:bf:bc:a6:
                    fa:85:5e:69:3c:01:6b:31:fa:94:ae:00:9e:60:fd:
                    92:50:ae:53:77:f4:1d:18:0d:98:41:17:db:a6:e3:
                    33:24:d3:df:48:f5:07:32:6f:62:06:93:5a:b2:b5:
                    b9:57:28:d4:ae:82:dc:ee:79:84:c5:c2:54:d4:17:
                    1d:ed:69:d4:e5:e5:31:19:62:1e:c5:28:bd:33:1b:
                    f3:89:92:2f:25:17:83:e2:00:b7:a8:79:0c:41:65:
                    ac:6e:d2:29:8a:1d:66:e8:ef:17:b3:37:76:55:a9:
                    2a:23:88:d2:93:a5:12:ab:4c:da:1e:df:29:3e:83:
                    ba:ef:f7:c5:3b:ec:0c:c2:d2:a0:d7:00:7e:3f:9e:
                    9b:f5:27:96:76:77:79:2a:6f:be:2c:59:0b:a0:5e:
                    f6:c6:bd:34:85:d1:e2:e8:7d:ad:17:04:f8:da:be:
                    f6:9d:3e:33:6f:52:35:30:40:32:ac:1d:49:57:cb:
                    39:74:35:2c:73:06:b1:9e:41:02:5f:58:24:e5:5b:
                    d3:5a:3a:22:f1:38:a4:1c:57:09:e7:e6:db:51:3a:
                    1a:00:c2:46:6e:fe:aa:8f:e4:9b:0b:b2:6e:4b:6b:
                    f2:e3:c6:8f:d4:8b:a9:f7:ab:cf:25:82:d1:d8:b5:
                    1f:fb:b0:b2:de:28:dd:27:74:ca:52:b9:2a:e1:b8:
                    76:7f:67:11:03:8c:5c:11:b6:9e:6b:a6:40:eb:dd:
                    e2:93:d3:0a:9c:fe:69:9c:f4:16:c2:fc:8d:10:a9:
                    45:1b:a3:0a:cd:73:aa:1c:ec:14:33:e5:c8:19:21:
                    93:20:c4:52:ff:27:15:f0:76:e1:09:a3:8a:bb:1e:
                    fb:83:26:9b:ee:23:38:8f:b0:10:67:42:97:87:aa:
                    a7:1a:b1:c6:75:b0:85:44:a7:64:bd:48:48:f1:d1:
                    99:dc:6d:c8:a6:86:41:20:76:80:90:1a:62:2f:cf:
                    db:ae:1d:80:fd:cf:81:14:b9:b4:ed:ef:51:b1:9e:
                    36:2a:a8:0c:8f:b6:76:e4:48:2d:7a:31:e2:b8:54:
                    e2:8a:61:11:b2:9f:82:ac:85:a0:1c:49:c6:65:87:
                    af:2d:15:e3:21:f3:3d:94:55:1b:85:d5:16:2c:b0:
                    8c:b7:63:bc:c2:43:bb:08:9f:95:9d:a4:47:8d:50:
                    fb:13:e1:77:41:4d:5c:f7:3a:46:64:a5:98:f2:e6:
                    d0:3c:a0:70:be:2e:08:7b:50:65:02:0c:ff:f6:21:
                    94:3b:66:fa:1d:17:fe:21:64:19:fb:36:e2:5c:02:
                    9f:dc:3b
                Exponent: 65537 (0x10001)
        X509v3 extensions:
            X509v3 Basic Constraints: 
                CA:FALSE
            X509v3 Key Usage: 
                Digital Signature
            X509v3 Extended Key Usage: 
                TLS Web Client Authentication, TLS Web Server Authentication
            Netscape Comment: 
                OpenSSL Generated Certificate
            X509v3 Subject Key Identifier: 
                95:30:E4:51:06:15:8E:EE:65:CC:B2:B3:DF:02:F7:75:86:D2:21:D7
            X509v3 Authority Key Identifier: 
                keyid:E1:C3:90:50:1C:40:C7:2F:11:19:E3:F0:60:56:47:C0:46:85:91:62

            X509v3 CRL Distribution Points: 

                Full Name:
                  URI:http://192.168.21.89/rootcrl.pem

    Signature Algorithm: sha1WithRSAEncryption
         9f:53:68:76:ea:c5:3b:dd:50:52:5b:2e:0f:1a:ef:64:0b:43:
         a1:e1:7d:65:be:7a:82:2a:75:f9:a5:6e:94:66:66:89:2c:4f:
         b7:2b:bc:be:61:fe:49:4a:36:f9:01:f7:ed:2d:e4:65:45:f3:
         13:e0:6a:5e:43:4c:34:66:b0:ec:2d:25:c9:9b:91:e7:70:90:
         af:a2:aa:0d:2b:d1:ed:13:50:4b:5b:d1:ce:1a:b6:27:a8:26:
         b6:d2:7a:d9:a9:23:f1:ad:63:26:cd:94:f5:9d:34:4d:c7:cb:
         b1:c1:dd:75:f8:62:6b:cb:9e:e4:09:8e:ba:95:02:53:35:f4:
         38:42:b4:95:38:08:f2:5b:b6:d6:79:84:cc:b4:c3:21:c6:e8:
         b3:7a:6e:5b:39:56:31:d0:b1:08:fe:15:a0:3d:09:e4:d9:3c:
         13:b7:3e:7d:1a:90:47:57:38:1e:d2:74:3a:93:29:c5:c9:fa:
         0d:45:0b:85:17:18:0a:e1:0e:07:ee:a4:f8:ee:2c:67:41:05:
         6e:d4:f5:6b:8b:0c:ba:a2:e0:1c:d6:1b:09:53:8a:1f:1b:7f:
         fa:50:a2:1b:8a:2b:a1:c2:24:0e:9b:c0:d7:aa:8c:6f:c5:c8:
         5a:de:c2:13:8b:97:94:90:4f:17:df:c4:b4:47:df:fd:90:7e:
         bf:2e:54:7b:f9:e4:6f:5f:67:ed:84:72:af:a4:ea:8c:df:11:
         e4:6d:fc:c4:36:1c:c2:2c:89:9c:33:30:9e:cd:52:47:18:49:
         3c:ac:04:19:df:1a:96:64:0b:14:de:5d:a6:ac:de:22:e1:3a:
         09:94:43:b2:b7:de:47:65:31:82:84:2a:61:53:f1:b5:fd:ba:
         08:58:32:55:8f:ae:98:4c:2d:a9:94:aa:cb:23:be:3c:23:0d:
         56:be:04:5b:dc:77:b5:fa:11:a3:39:8d:03:f3:e7:af:3d:91:
         21:ba:20:2e:d6:ed:ef:05:f5:ff:b9:eb:c1:a9:03:4c:33:56:
         4f:6d:a7:34:34:cd:e3:de:dc:c1:7d:1e:62:86:4a:a5:d0:5b:
         88:d8:4c:88:f7:3d:0d:00:bc:58:79:e2:ea:67:60:0f:19:6f:
         48:9b:f0:5e:02:ee:35:69:73:e0:d8:a9:5a:b2:c8:ba:47:42:
         65:c3:95:a7:ea:89:a8:1e:91:c2:72:52:76:9a:76:96:f8:f3:
         bf:df:98:dc:4c:fc:62:ea:39:04:89:a9:2e:6f:8c:35:44:06:
         e0:48:4f:fd:19:ae:11:d1:3c:c5:bf:17:e3:3b:f6:bf:90:34:
         8a:53:53:56:71:7b:47:d1:7b:b8:77:a5:f0:5e:55:1d:cc:8c:
         2b:67:8b:9e:6c:62:4c:08
-----BEGIN CERTIFICATE-----
MIIGQTCCBCmgAwIBAgIBDTANBgkqhkiG9w0BAQUFADCBkDELMAkGA1UEBhMCQkEx
CzAJBgNVBAgTAlJTMRMwEQYDVQQHEwpCYW5qYSBMdWthMSEwHwYDVQQKExhFbGVr
dHJvdGVobmlja2kgZmFrdWx0ZXQxDDAKBgNVBAsTA0VURjESMBAGA1UEAxQJQ0Ff
dGlqZWxvMRowGAYJKoZIhvcNAQkBFgtjYUBtYWlsLmNvbTAeFw0yNDAxMjIxNDE4
MTJaFw0yNTAxMjExNDE4MTJaMFkxCzAJBgNVBAYTAmFuMQwwCgYDVQQIEwNhbmEx
DDAKBgNVBAoTA2FuYTEMMAoGA1UECxMDYW5hMQwwCgYDVQQDEwNhbmExEjAQBgkq
hkiG9w0BCQEWA2FuYTCCAiIwDQYJKoZIhvcNAQEBBQADggIPADCCAgoCggIBAKp1
v9YwF40iSLt//xLEp6fifTLr7mTOTr70v7ym+oVeaTwBazH6lK4AnmD9klCuU3f0
HRgNmEEX26bjMyTT30j1BzJvYgaTWrK1uVco1K6C3O55hMXCVNQXHe1p1OXlMRli
HsUovTMb84mSLyUXg+IAt6h5DEFlrG7SKYodZujvF7M3dlWpKiOI0pOlEqtM2h7f
KT6Duu/3xTvsDMLSoNcAfj+em/UnlnZ3eSpvvixZC6Be9sa9NIXR4uh9rRcE+Nq+
9p0+M29SNTBAMqwdSVfLOXQ1LHMGsZ5BAl9YJOVb01o6IvE4pBxXCefm21E6GgDC
Rm7+qo/kmwuybktr8uPGj9SLqferzyWC0di1H/uwst4o3Sd0ylK5KuG4dn9nEQOM
XBG2nmumQOvd4pPTCpz+aZz0FsL8jRCpRRujCs1zqhzsFDPlyBkhkyDEUv8nFfB2
4Qmjirse+4Mmm+4jOI+wEGdCl4eqpxqxxnWwhUSnZL1ISPHRmdxtyKaGQSB2gJAa
Yi/P264dgP3PgRS5tO3vUbGeNiqoDI+2duRILXox4rhU4ophEbKfgqyFoBxJxmWH
ry0V4yHzPZRVG4XVFiywjLdjvMJDuwiflZ2kR41Q+xPhd0FNXPc6RmSlmPLm0Dyg
cL4uCHtQZQIM//YhlDtm+h0X/iFkGfs24lwCn9w7AgMBAAGjgdswgdgwCQYDVR0T
BAIwADALBgNVHQ8EBAMCB4AwHQYDVR0lBBYwFAYIKwYBBQUHAwIGCCsGAQUFBwMB
MCwGCWCGSAGG+EIBDQQfFh1PcGVuU1NMIEdlbmVyYXRlZCBDZXJ0aWZpY2F0ZTAd
BgNVHQ4EFgQUlTDkUQYVju5lzLKz3wL3dYbSIdcwHwYDVR0jBBgwFoAU4cOQUBxA
xy8RGePwYFZHwEaFkWIwMQYDVR0fBCowKDAmoCSgIoYgaHR0cDovLzE5Mi4xNjgu
MjEuODkvcm9vdGNybC5wZW0wDQYJKoZIhvcNAQEFBQADggIBAJ9TaHbqxTvdUFJb
Lg8a72QLQ6HhfWW+eoIqdfmlbpRmZoksT7crvL5h/klKNvkB9+0t5GVF8xPgal5D
TDRmsOwtJcmbkedwkK+iqg0r0e0TUEtb0c4atieoJrbSetmpI/GtYybNlPWdNE3H
y7HB3XX4YmvLnuQJjrqVAlM19DhCtJU4CPJbttZ5hMy0wyHG6LN6bls5VjHQsQj+
FaA9CeTZPBO3Pn0akEdXOB7SdDqTKcXJ+g1FC4UXGArhDgfupPjuLGdBBW7U9WuL
DLqi4BzWGwlTih8bf/pQohuKK6HCJA6bwNeqjG/FyFrewhOLl5SQTxffxLRH3/2Q
fr8uVHv55G9fZ+2Ecq+k6ozfEeRt/MQ2HMIsiZwzMJ7NUkcYSTysBBnfGpZkCxTe
Xaas3iLhOgmUQ7K33kdlMYKEKmFT8bX9ughYMlWPrphMLamUqssjvjwjDVa+BFvc
d7X6EaM5jQPz5689kSG6IC7W7e8F9f+568GpA0wzVk9tpzQ0zePe3MF9HmKGSqXQ
W4jYTIj3PQ0AvFh54upnYA8Zb0ib8F4C7jVpc+DYqVqyyLpHQmXDlafqiagekcJy
Unaadpb487/fmNxM/GLqOQSJqS5vjDVEBuBIT/0ZrhHRPMW/F+M79r+QNIpTU1Zx
e0fRe7h3pfBeVR3MjCtni55sYkwI
-----END CERTIFICATE-----
