Certificate:
    Data:
        Version: 3 (0x2)
        Serial Number: 14 (0xe)
        Signature Algorithm: sha1WithRSAEncryption
        Issuer: C=BA, ST=RS, L=Banja Luka, O=Elektrotehnicki fakultet, OU=ETF, CN=CA_tijelo/emailAddress=ca@mail.com
        Validity
            Not Before: Jan 22 14:21:06 2024 GMT
            Not After : Jan 21 14:21:06 2025 GMT
        Subject: C=SA, ST=jasna, O=jasna, OU=jasna, CN=jasna/emailAddress=jasna
        Subject Public Key Info:
            Public Key Algorithm: rsaEncryption
                RSA Public-Key: (4096 bit)
                Modulus:
                    00:b5:d3:79:4f:67:d3:62:c6:3e:86:a8:c1:ff:ae:
                    89:d6:a6:ab:ff:10:ee:04:65:6e:a4:1f:da:0c:eb:
                    d5:6c:81:92:08:b8:7f:f0:78:4e:17:89:da:b1:45:
                    66:76:b4:e5:25:88:4b:0b:a4:d2:5d:f1:a5:47:d7:
                    88:b2:80:87:3f:1a:55:d8:f8:10:0b:d0:8a:18:9b:
                    de:03:68:c1:2a:28:70:60:08:88:76:b1:d0:ee:b4:
                    72:60:e9:dd:48:9d:30:bf:db:a8:5f:9a:92:ad:0a:
                    a6:a1:cd:07:c1:22:c9:28:51:b4:f3:b1:99:9e:f7:
                    9b:9f:03:dc:ee:72:e7:ca:ea:d1:7d:6e:7a:d8:14:
                    99:d4:75:fa:ba:a9:14:24:f8:d1:0a:c9:c3:4b:33:
                    67:66:49:3a:ca:51:2f:11:82:a7:52:63:68:ae:74:
                    43:7c:29:06:7d:c7:84:04:28:92:a5:14:f6:6b:74:
                    d1:98:e9:47:40:70:62:36:e8:9c:09:75:c4:67:5e:
                    1b:88:27:21:04:77:58:dd:61:96:aa:0a:64:4a:0e:
                    be:cf:38:1d:5d:59:43:b9:13:26:d3:e4:5b:54:d2:
                    89:85:7e:16:89:c7:87:f4:93:a0:eb:a3:bf:f7:b8:
                    f5:7e:78:0e:ac:09:f1:3c:85:92:f1:8b:13:55:c6:
                    7d:6c:22:76:26:37:db:d2:d9:d3:bf:41:96:f1:db:
                    87:d5:7d:06:ee:dd:45:05:a0:d3:64:a5:c7:b1:aa:
                    57:20:a1:ce:c0:68:ec:10:fb:e7:01:4f:19:f0:4a:
                    6d:8b:f2:11:2d:54:0a:af:f1:fd:bc:ab:d3:44:31:
                    d8:0f:91:20:55:0d:d9:a7:85:3d:f4:7d:8b:fe:f4:
                    7c:19:aa:e1:48:6d:a6:88:ab:b0:2c:1d:c2:59:48:
                    c0:9f:10:be:da:35:25:bf:57:0d:d7:63:11:b2:48:
                    8d:3d:48:9e:22:07:45:4b:39:1d:f8:47:9b:be:d9:
                    2d:9f:eb:28:b7:28:c5:2d:91:19:5b:44:39:bd:df:
                    b4:93:76:1a:1b:db:da:6f:86:a5:dd:09:0b:c8:30:
                    b9:40:f6:75:68:a4:98:80:1d:27:1d:29:b7:1b:9b:
                    7c:7a:3f:35:f5:bd:61:47:b5:c1:4b:27:e9:df:6b:
                    6e:fe:3a:d5:c5:c4:65:d6:c7:6e:ec:7f:37:a4:4b:
                    0c:76:1c:bb:96:6d:d9:e0:d3:4a:fe:01:70:bb:ef:
                    92:7c:cd:6d:e6:a8:3f:13:8b:97:f9:37:9b:a2:a1:
                    64:9d:89:aa:33:1f:c4:da:e4:d5:e5:6e:36:92:5b:
                    52:d5:c4:59:19:d3:d2:22:f3:26:87:76:e7:0c:9b:
                    7f:9a:93
                Exponent: 65537 (0x10001)
        X509v3 extensions:
            X509v3 Basic Constraints: 
                CA:FALSE
            X509v3 Key Usage: 
                Digital Signature
            X509v3 Extended Key Usage: 
                TLS Web Client Authentication, TLS Web Server Authentication
            Netscape Comment: 
                OpenSSL Generated Certificate
            X509v3 Subject Key Identifier: 
                D2:8D:75:D8:53:5B:84:7D:CD:78:F4:99:B6:DF:21:CF:CE:9A:3F:04
            X509v3 Authority Key Identifier: 
                keyid:E1:C3:90:50:1C:40:C7:2F:11:19:E3:F0:60:56:47:C0:46:85:91:62

            X509v3 CRL Distribution Points: 

                Full Name:
                  URI:http://192.168.21.89/rootcrl.pem

    Signature Algorithm: sha1WithRSAEncryption
         59:7a:3f:e2:6e:1d:c8:a5:35:b8:c7:5e:9e:9c:7f:37:20:5c:
         8c:7f:9d:05:27:f7:e0:8e:ef:44:bf:c2:db:53:36:fd:00:57:
         65:76:2d:a3:75:49:0d:00:f4:15:57:0e:af:83:51:7a:9c:aa:
         28:07:f4:2f:ae:ee:3e:99:db:a3:1f:09:4c:bc:d7:52:a1:71:
         0c:05:b6:1f:87:b9:da:ec:be:19:da:e6:d7:89:88:95:fd:f6:
         1f:e8:b1:16:2a:09:4d:87:7b:3e:e7:bd:18:a0:31:d6:18:3e:
         6c:2a:65:9f:95:f9:02:93:48:3c:65:e5:d2:5d:97:c6:f2:48:
         f0:b6:9a:7e:6f:ce:3a:f8:2e:a9:2c:1f:37:fc:71:91:b0:96:
         03:60:ab:c1:52:77:42:20:c2:b0:3d:39:f6:a8:c6:8d:02:2c:
         f9:a1:93:f4:09:31:57:ec:db:03:bd:0b:bb:38:ba:65:80:06:
         af:1a:5c:c0:0c:31:42:d1:e4:e4:39:d7:de:5b:01:85:3a:74:
         58:72:02:68:f4:bf:50:19:f9:78:4d:52:4a:0b:1e:33:9d:7a:
         f8:b7:0e:a1:00:d1:79:5f:43:c1:42:e2:1f:73:9c:73:9e:e6:
         ac:f7:05:db:04:ee:91:b7:90:77:40:ef:19:1c:2f:23:3b:6b:
         bd:03:17:2f:5f:a3:d0:a2:6a:e5:8e:4d:5e:40:cf:b4:e9:d5:
         af:1a:76:83:eb:65:46:a4:09:57:bf:0a:3e:44:f0:2a:ee:fb:
         8b:62:85:5f:09:5a:9f:78:b4:2b:cc:0b:7e:b3:0d:9e:15:e8:
         e6:25:b6:88:ca:48:0b:5c:81:79:47:86:a5:3e:13:be:44:ae:
         06:89:e0:d3:49:80:dc:e0:c5:ef:e6:26:1b:d3:23:70:ae:d9:
         b1:eb:b4:24:b3:fe:61:73:90:82:6b:ce:57:39:e7:b7:42:33:
         16:14:f7:bb:e1:d6:df:b6:02:b3:c8:7f:65:cf:fa:e4:18:81:
         51:aa:86:34:ea:cc:d2:1e:21:2b:68:82:39:98:ba:23:6d:5e:
         91:eb:60:da:29:cd:8c:89:ec:bf:26:5e:5e:53:f3:e8:63:7c:
         0e:e6:44:2a:d1:8f:fd:1c:97:77:87:42:d6:58:ce:1c:77:8a:
         bf:a2:a8:c7:82:2c:cd:58:e0:71:92:7c:96:a5:17:9a:ab:9d:
         ee:7d:44:b1:31:ba:ae:a0:b1:b9:d2:85:2a:32:5c:51:99:f4:
         d7:11:e7:50:63:71:da:2b:fe:b5:c8:90:e6:f8:55:0e:40:cd:
         65:28:e4:ba:aa:eb:27:91:cd:bc:6b:f5:cf:30:fd:0e:ec:b9:
         08:76:72:5d:a9:bf:03:08
-----BEGIN CERTIFICATE-----
MIIGSzCCBDOgAwIBAgIBDjANBgkqhkiG9w0BAQUFADCBkDELMAkGA1UEBhMCQkEx
CzAJBgNVBAgTAlJTMRMwEQYDVQQHEwpCYW5qYSBMdWthMSEwHwYDVQQKExhFbGVr
dHJvdGVobmlja2kgZmFrdWx0ZXQxDDAKBgNVBAsTA0VURjESMBAGA1UEAxQJQ0Ff
dGlqZWxvMRowGAYJKoZIhvcNAQkBFgtjYUBtYWlsLmNvbTAeFw0yNDAxMjIxNDIx
MDZaFw0yNTAxMjExNDIxMDZaMGMxCzAJBgNVBAYTAlNBMQ4wDAYDVQQIEwVqYXNu
YTEOMAwGA1UEChMFamFzbmExDjAMBgNVBAsTBWphc25hMQ4wDAYDVQQDEwVqYXNu
YTEUMBIGCSqGSIb3DQEJARYFamFzbmEwggIiMA0GCSqGSIb3DQEBAQUAA4ICDwAw
ggIKAoICAQC103lPZ9Nixj6GqMH/ronWpqv/EO4EZW6kH9oM69VsgZIIuH/weE4X
idqxRWZ2tOUliEsLpNJd8aVH14iygIc/GlXY+BAL0IoYm94DaMEqKHBgCIh2sdDu
tHJg6d1InTC/26hfmpKtCqahzQfBIskoUbTzsZme95ufA9zucufK6tF9bnrYFJnU
dfq6qRQk+NEKycNLM2dmSTrKUS8RgqdSY2iudEN8KQZ9x4QEKJKlFPZrdNGY6UdA
cGI26JwJdcRnXhuIJyEEd1jdYZaqCmRKDr7POB1dWUO5EybT5FtU0omFfhaJx4f0
k6Dro7/3uPV+eA6sCfE8hZLxixNVxn1sInYmN9vS2dO/QZbx24fVfQbu3UUFoNNk
pcexqlcgoc7AaOwQ++cBTxnwSm2L8hEtVAqv8f28q9NEMdgPkSBVDdmnhT30fYv+
9HwZquFIbaaIq7AsHcJZSMCfEL7aNSW/Vw3XYxGySI09SJ4iB0VLOR34R5u+2S2f
6yi3KMUtkRlbRDm937STdhob29pvhqXdCQvIMLlA9nVopJiAHScdKbcbm3x6PzX1
vWFHtcFLJ+nfa27+OtXFxGXWx27sfzekSwx2HLuWbdng00r+AXC775J8zW3mqD8T
i5f5N5uioWSdiaozH8Ta5NXlbjaSW1LVxFkZ09Ii8yaHducMm3+akwIDAQABo4Hb
MIHYMAkGA1UdEwQCMAAwCwYDVR0PBAQDAgeAMB0GA1UdJQQWMBQGCCsGAQUFBwMC
BggrBgEFBQcDATAsBglghkgBhvhCAQ0EHxYdT3BlblNTTCBHZW5lcmF0ZWQgQ2Vy
dGlmaWNhdGUwHQYDVR0OBBYEFNKNddhTW4R9zXj0mbbfIc/Omj8EMB8GA1UdIwQY
MBaAFOHDkFAcQMcvERnj8GBWR8BGhZFiMDEGA1UdHwQqMCgwJqAkoCKGIGh0dHA6
Ly8xOTIuMTY4LjIxLjg5L3Jvb3RjcmwucGVtMA0GCSqGSIb3DQEBBQUAA4ICAQBZ
ej/ibh3IpTW4x16enH83IFyMf50FJ/fgju9Ev8LbUzb9AFdldi2jdUkNAPQVVw6v
g1F6nKooB/Qvru4+mdujHwlMvNdSoXEMBbYfh7na7L4Z2ubXiYiV/fYf6LEWKglN
h3s+570YoDHWGD5sKmWflfkCk0g8ZeXSXZfG8kjwtpp+b846+C6pLB83/HGRsJYD
YKvBUndCIMKwPTn2qMaNAiz5oZP0CTFX7NsDvQu7OLplgAavGlzADDFC0eTkOdfe
WwGFOnRYcgJo9L9QGfl4TVJKCx4znXr4tw6hANF5X0PBQuIfc5xznuas9wXbBO6R
t5B3QO8ZHC8jO2u9AxcvX6PQomrljk1eQM+06dWvGnaD62VGpAlXvwo+RPAq7vuL
YoVfCVqfeLQrzAt+sw2eFejmJbaIykgLXIF5R4alPhO+RK4GieDTSYDc4MXv5iYb
0yNwrtmx67Qks/5hc5CCa85XOee3QjMWFPe74dbftgKzyH9lz/rkGIFRqoY06szS
HiEraII5mLojbV6R62DaKc2Miey/Jl5eU/PoY3wO5kQq0Y/9HJd3h0LWWM4cd4q/
oqjHgizNWOBxknyWpReaq53ufUSxMbquoLG50oUqMlxRmfTXEedQY3HaK/61yJDm
+FUOQM1lKOS6qusnkc28a/XPMP0O7LkIdnJdqb8DCA==
-----END CERTIFICATE-----
