Certificate:
    Data:
        Version: 3 (0x2)
        Serial Number: 15 (0xf)
        Signature Algorithm: sha1WithRSAEncryption
        Issuer: C=BA, ST=RS, L=Banja Luka, O=Elektrotehnicki fakultet, OU=ETF, CN=CA_tijelo/emailAddress=ca@mail.com
        Validity
            Not Before: Jan 22 14:23:52 2024 GMT
            Not After : Jan 21 14:23:52 2025 GMT
        Subject: C=RA, ST=rada, O=rada, OU=rada, CN=rada/emailAddress=rad
        Subject Public Key Info:
            Public Key Algorithm: rsaEncryption
                RSA Public-Key: (4096 bit)
                Modulus:
                    00:b5:e8:62:0e:b0:5f:9a:92:67:67:87:4d:17:2b:
                    3f:e2:4f:f8:d2:0d:78:04:ba:dc:cf:a8:cb:74:f4:
                    f4:a5:33:f9:9f:22:8b:2c:6c:5b:8b:f3:14:55:24:
                    d3:fd:90:0e:2e:c0:18:3f:29:6a:b0:bf:bc:8c:4f:
                    d1:93:53:e1:79:ed:37:28:2e:98:2f:05:93:1d:72:
                    47:e0:38:0e:28:ea:8b:97:c5:07:4c:9d:27:3f:f0:
                    f5:5e:67:6e:26:92:f9:93:b4:4d:6a:c6:7a:4e:42:
                    a2:3d:5e:a9:f8:ba:bd:d0:bb:d6:69:26:e6:77:93:
                    2e:e4:00:07:e6:ac:7d:ae:97:3f:e4:c5:6e:e0:65:
                    29:11:74:f8:ed:67:95:b6:f7:2d:7e:49:65:62:8f:
                    5b:49:6b:21:cc:68:ca:87:f3:ab:c2:6e:b7:64:e9:
                    ca:48:4d:91:62:d2:60:21:6d:c8:e9:b9:a6:b1:57:
                    7d:0d:2e:23:9d:81:fc:c1:a1:87:40:e3:9c:dd:b5:
                    ba:e9:6f:cf:e4:50:9e:02:09:c0:c9:dd:79:81:a0:
                    5b:bd:57:2d:91:6f:c5:8b:fa:fe:01:c3:c1:e8:c8:
                    0a:d8:8c:c7:55:e5:9c:09:ba:88:12:19:4a:b2:ed:
                    4e:a5:bb:4f:88:73:9e:53:d7:99:f5:3c:41:3d:23:
                    57:c0:b9:df:a9:13:08:76:cc:18:65:88:b4:e7:43:
                    08:26:b3:0d:e5:9e:d5:7f:40:42:58:26:8f:b5:61:
                    8e:3a:53:7a:41:ee:fd:df:9b:69:e2:02:7f:61:87:
                    a4:ed:39:a0:75:4b:91:ba:91:43:8a:ba:64:7b:79:
                    1e:e7:2c:fe:0c:6a:e3:6c:c7:60:9d:80:0b:9c:05:
                    77:03:e4:ce:6c:22:b1:46:98:23:3e:95:e9:0c:4b:
                    a7:60:84:97:df:17:70:3d:28:c1:db:27:a3:af:30:
                    c0:0e:3f:67:67:10:b3:22:fe:92:83:3f:03:9f:7a:
                    0e:34:4d:3f:1a:70:29:5c:52:2a:6f:93:44:45:37:
                    b8:35:25:82:85:af:60:b3:8a:0c:bd:85:aa:c6:ea:
                    dc:8f:54:9a:83:52:16:62:49:6b:dd:7d:cc:5c:fe:
                    77:99:7b:c0:d5:0c:29:6f:a3:60:c0:69:35:c0:b0:
                    9c:95:62:31:8d:63:13:9b:f6:1c:97:75:89:50:41:
                    e9:83:61:4f:dd:c4:f4:ec:df:c3:f7:cd:ab:2b:5b:
                    66:3a:b3:de:b0:63:c3:2e:63:c5:85:03:cb:7b:d4:
                    c5:5f:aa:0b:1d:e0:7b:3c:ce:41:ce:b4:12:f8:31:
                    c2:87:7c:3b:20:73:d3:a3:c7:89:3b:8a:dc:ab:50:
                    88:55:b3
                Exponent: 65537 (0x10001)
        X509v3 extensions:
            X509v3 Basic Constraints: 
                CA:FALSE
            X509v3 Key Usage: 
                Digital Signature
            X509v3 Extended Key Usage: 
                TLS Web Client Authentication, TLS Web Server Authentication
            Netscape Comment: 
                OpenSSL Generated Certificate
            X509v3 Subject Key Identifier: 
                63:1C:CC:8B:CD:35:7D:87:78:0F:C3:D5:D7:39:C7:B8:D0:EC:1E:6D
            X509v3 Authority Key Identifier: 
                keyid:E1:C3:90:50:1C:40:C7:2F:11:19:E3:F0:60:56:47:C0:46:85:91:62

            X509v3 CRL Distribution Points: 

                Full Name:
                  URI:http://192.168.21.89/rootcrl.pem

    Signature Algorithm: sha1WithRSAEncryption
         b6:32:a1:cf:76:6f:58:9b:3a:09:9e:07:40:90:5e:20:de:b1:
         71:cf:00:71:2c:81:17:5f:1e:dd:9c:87:93:ba:c5:aa:1e:fb:
         ac:3d:e5:c0:5e:1b:43:65:05:68:ac:5e:23:9b:92:d1:a6:3e:
         91:ec:83:00:b2:ed:2a:1e:ef:4e:f2:3a:79:92:4b:87:f3:9f:
         a3:c9:ce:c1:6d:e7:17:e8:32:01:ba:a0:f7:d9:5b:42:72:f4:
         ba:39:20:4c:3a:d1:46:aa:a8:aa:8a:d4:4f:1a:14:ce:61:f5:
         36:68:76:83:76:8e:d9:2d:fc:b1:0b:35:6d:b1:33:8a:60:ab:
         a5:b3:ca:a0:1b:d1:b5:e2:fa:41:7a:3b:bb:89:a3:24:26:fd:
         f5:c5:66:18:d3:ce:07:59:a2:04:8d:32:22:4f:3a:14:61:b6:
         f7:ed:ff:36:a5:f5:4b:91:44:8b:fc:45:c3:cf:8a:52:e7:7c:
         c4:dc:25:cf:c5:2a:55:4c:c4:b0:b3:f4:40:9b:17:25:03:2e:
         1a:83:9e:d4:a5:ca:4d:76:29:53:b4:c2:db:34:f3:ce:f7:a2:
         ab:5d:e6:9d:70:ec:88:e1:c4:d8:a5:34:28:75:a2:1c:5b:34:
         9d:44:b9:c0:bb:61:e1:f0:66:52:5f:eb:26:53:65:b2:69:7f:
         f5:88:d4:b1:f8:4b:57:1f:ef:68:64:4b:b3:0a:da:9d:ea:61:
         37:d5:22:c1:99:1c:43:10:33:00:e4:da:76:24:e7:fd:09:40:
         fd:f2:1b:aa:70:fd:2b:0e:29:19:9b:f7:39:80:88:d6:93:94:
         8e:08:6b:e7:03:ac:56:08:9f:cb:b5:97:35:26:7a:54:dc:28:
         ad:9b:3f:4f:c7:04:c1:4f:85:46:67:6a:bb:4f:02:c9:5a:36:
         bc:d6:24:72:9d:e4:74:6d:b9:2c:d9:01:d9:15:5b:d4:80:f7:
         a6:4e:34:09:25:40:0a:3c:50:12:1f:2e:36:e1:e5:fb:c3:b7:
         45:cb:5c:26:6c:21:32:d6:1b:27:ae:17:43:31:d6:26:d4:0d:
         85:c5:94:90:5d:73:7e:d6:86:1b:1f:7c:0e:64:34:53:f2:e7:
         17:6f:ec:4c:81:96:63:75:1c:d6:22:3b:17:cb:4b:81:3e:7b:
         63:0c:c4:f4:02:ad:3f:63:ad:f9:b5:d7:05:83:b6:d6:f3:61:
         a4:bf:0b:ec:44:39:d3:e9:ed:fe:6a:b4:2b:cd:0a:c3:d9:ba:
         df:fe:d8:7b:7e:0e:43:dc:9d:08:e6:0b:c5:72:3e:f4:31:4b:
         f9:0f:15:53:cc:8a:be:4c:b9:1f:19:4d:29:7b:50:a0:28:aa:
         f7:d1:eb:5a:2d:12:81:4d
-----BEGIN CERTIFICATE-----
MIIGRTCCBC2gAwIBAgIBDzANBgkqhkiG9w0BAQUFADCBkDELMAkGA1UEBhMCQkEx
CzAJBgNVBAgTAlJTMRMwEQYDVQQHEwpCYW5qYSBMdWthMSEwHwYDVQQKExhFbGVr
dHJvdGVobmlja2kgZmFrdWx0ZXQxDDAKBgNVBAsTA0VURjESMBAGA1UEAxQJQ0Ff
dGlqZWxvMRowGAYJKoZIhvcNAQkBFgtjYUBtYWlsLmNvbTAeFw0yNDAxMjIxNDIz
NTJaFw0yNTAxMjExNDIzNTJaMF0xCzAJBgNVBAYTAlJBMQ0wCwYDVQQIEwRyYWRh
MQ0wCwYDVQQKEwRyYWRhMQ0wCwYDVQQLEwRyYWRhMQ0wCwYDVQQDEwRyYWRhMRIw
EAYJKoZIhvcNAQkBFgNyYWQwggIiMA0GCSqGSIb3DQEBAQUAA4ICDwAwggIKAoIC
AQC16GIOsF+akmdnh00XKz/iT/jSDXgEutzPqMt09PSlM/mfIossbFuL8xRVJNP9
kA4uwBg/KWqwv7yMT9GTU+F57TcoLpgvBZMdckfgOA4o6ouXxQdMnSc/8PVeZ24m
kvmTtE1qxnpOQqI9Xqn4ur3Qu9ZpJuZ3ky7kAAfmrH2ulz/kxW7gZSkRdPjtZ5W2
9y1+SWVij1tJayHMaMqH86vCbrdk6cpITZFi0mAhbcjpuaaxV30NLiOdgfzBoYdA
45zdtbrpb8/kUJ4CCcDJ3XmBoFu9Vy2Rb8WL+v4Bw8HoyArYjMdV5ZwJuogSGUqy
7U6lu0+Ic55T15n1PEE9I1fAud+pEwh2zBhliLTnQwgmsw3lntV/QEJYJo+1YY46
U3pB7v3fm2niAn9hh6TtOaB1S5G6kUOKumR7eR7nLP4MauNsx2CdgAucBXcD5M5s
IrFGmCM+lekMS6dghJffF3A9KMHbJ6OvMMAOP2dnELMi/pKDPwOfeg40TT8acClc
Uipvk0RFN7g1JYKFr2Czigy9harG6tyPVJqDUhZiSWvdfcxc/neZe8DVDClvo2DA
aTXAsJyVYjGNYxOb9hyXdYlQQemDYU/dxPTs38P3zasrW2Y6s96wY8MuY8WFA8t7
1MVfqgsd4Hs8zkHOtBL4McKHfDsgc9Ojx4k7ityrUIhVswIDAQABo4HbMIHYMAkG
A1UdEwQCMAAwCwYDVR0PBAQDAgeAMB0GA1UdJQQWMBQGCCsGAQUFBwMCBggrBgEF
BQcDATAsBglghkgBhvhCAQ0EHxYdT3BlblNTTCBHZW5lcmF0ZWQgQ2VydGlmaWNh
dGUwHQYDVR0OBBYEFGMczIvNNX2HeA/D1dc5x7jQ7B5tMB8GA1UdIwQYMBaAFOHD
kFAcQMcvERnj8GBWR8BGhZFiMDEGA1UdHwQqMCgwJqAkoCKGIGh0dHA6Ly8xOTIu
MTY4LjIxLjg5L3Jvb3RjcmwucGVtMA0GCSqGSIb3DQEBBQUAA4ICAQC2MqHPdm9Y
mzoJngdAkF4g3rFxzwBxLIEXXx7dnIeTusWqHvusPeXAXhtDZQVorF4jm5LRpj6R
7IMAsu0qHu9O8jp5kkuH85+jyc7BbecX6DIBuqD32VtCcvS6OSBMOtFGqqiqitRP
GhTOYfU2aHaDdo7ZLfyxCzVtsTOKYKuls8qgG9G14vpBeju7iaMkJv31xWYY084H
WaIEjTIiTzoUYbb37f82pfVLkUSL/EXDz4pS53zE3CXPxSpVTMSws/RAmxclAy4a
g57UpcpNdilTtMLbNPPO96KrXeadcOyI4cTYpTQodaIcWzSdRLnAu2Hh8GZSX+sm
U2WyaX/1iNSx+EtXH+9oZEuzCtqd6mE31SLBmRxDEDMA5Np2JOf9CUD98huqcP0r
DikZm/c5gIjWk5SOCGvnA6xWCJ/LtZc1JnpU3Citmz9PxwTBT4VGZ2q7TwLJWja8
1iRyneR0bbks2QHZFVvUgPemTjQJJUAKPFASHy424eX7w7dFy1wmbCEy1hsnrhdD
MdYm1A2FxZSQXXN+1oYbH3wOZDRT8ucXb+xMgZZjdRzWIjsXy0uBPntjDMT0Aq0/
Y635tdcFg7bW82GkvwvsRDnT6e3+arQrzQrD2brf/th7fg5D3J0I5gvFcj70MUv5
DxVTzIq+TLkfGU0pe1CgKKr30etaLRKBTQ==
-----END CERTIFICATE-----
