Certificate:
    Data:
        Version: 3 (0x2)
        Serial Number: 16 (0x10)
        Signature Algorithm: sha1WithRSAEncryption
        Issuer: C=BA, ST=RS, L=Banja Luka, O=Elektrotehnicki fakultet, OU=ETF, CN=CA_tijelo/emailAddress=ca@mail.com
        Validity
            Not Before: Jan 22 15:28:29 2024 GMT
            Not After : Jan 21 15:28:29 2025 GMT
        Subject: C=VA, ST=vesna, O=vesna, OU=vesna, CN=vesna/emailAddress=vesna
        Subject Public Key Info:
            Public Key Algorithm: rsaEncryption
                RSA Public-Key: (4096 bit)
                Modulus:
                    00:d7:e4:07:61:4c:4c:06:0a:3e:cb:7b:7a:44:b8:
                    da:16:65:d6:03:fa:f9:cf:1a:c8:1f:51:09:0d:15:
                    29:2e:61:8a:79:67:76:d7:a6:13:83:4f:43:be:96:
                    bb:85:77:22:f8:b3:13:fa:60:2a:eb:49:08:69:08:
                    a2:cd:26:77:73:63:a6:f8:cd:3a:9f:9c:9e:7e:7b:
                    e3:94:e1:97:19:d1:bc:1c:55:b5:67:ae:0f:ad:2f:
                    b8:04:9f:27:05:6e:38:f2:cb:1b:0e:4a:99:73:cc:
                    44:d0:94:eb:5f:80:0b:56:d2:d5:d3:3f:ef:a6:6e:
                    2b:b3:6b:4f:45:74:4c:17:0e:fa:59:a8:63:71:ef:
                    99:44:ff:73:d1:ae:9a:22:64:c7:5d:8b:bb:14:17:
                    e1:2e:65:9b:af:9e:3c:84:0d:31:b5:b4:3b:f0:42:
                    81:1f:91:e1:d1:51:1c:37:dd:dc:03:2a:1a:c9:93:
                    2b:fc:80:bd:6b:ed:87:a2:b3:23:90:db:87:f5:5a:
                    17:ff:d4:18:77:1f:75:eb:7e:21:db:73:60:38:9e:
                    cc:74:55:9d:10:1f:55:f6:e5:a9:78:8c:19:d7:b6:
                    da:7f:16:89:01:c4:9a:4c:fa:24:1f:a9:22:0b:f7:
                    88:a7:b3:4a:a0:bc:cd:9f:21:ca:ab:78:9d:ea:52:
                    3f:60:43:ad:4e:a8:0f:f4:11:3a:0b:1a:ba:12:d3:
                    84:de:4b:dc:87:54:fa:39:bc:f4:e5:eb:58:df:dd:
                    e3:04:f1:b2:21:1c:19:3c:66:e6:24:8f:f6:02:45:
                    f9:7f:69:19:05:5c:b6:ec:2c:d5:4c:d0:3a:1b:5e:
                    03:72:05:1a:04:c7:d5:d9:94:37:d4:c2:39:f7:eb:
                    7e:4a:e5:29:31:0b:4d:b9:d1:e7:6c:87:d7:b3:cf:
                    6d:21:0c:b6:e9:3a:86:7a:c3:45:62:fe:36:18:a1:
                    65:cb:9f:5d:8b:e1:85:fe:65:9e:d0:3b:f6:ec:c5:
                    a9:70:a5:9c:3e:c6:b0:7d:f1:e8:37:e4:d9:73:6e:
                    01:7e:1a:9c:65:99:ba:73:2e:fa:7c:0e:95:c5:eb:
                    c4:28:ba:31:77:ef:b7:9e:99:d2:dd:37:cb:3e:a1:
                    1c:84:91:a4:35:f1:c0:33:15:70:fc:25:00:b2:2b:
                    c2:6c:a7:6d:d5:71:7a:a8:2c:17:ac:66:a3:22:a2:
                    46:89:3c:9b:b8:37:e8:8a:11:3c:77:09:a6:a7:57:
                    c4:85:fa:68:9a:3f:bd:88:6d:c7:6a:74:a6:b0:84:
                    36:51:f2:fa:8d:2f:3a:64:55:54:b3:db:e7:4f:74:
                    c1:a4:f9:7a:bc:75:39:0a:57:50:1a:21:46:ed:b3:
                    c2:fb:dd
                Exponent: 65537 (0x10001)
        X509v3 extensions:
            X509v3 Basic Constraints: 
                CA:FALSE
            X509v3 Key Usage: 
                Digital Signature
            X509v3 Extended Key Usage: 
                TLS Web Client Authentication, TLS Web Server Authentication
            Netscape Comment: 
                OpenSSL Generated Certificate
            X509v3 Subject Key Identifier: 
                B5:54:C0:C0:1C:2A:81:BD:18:24:85:8D:0B:80:A8:3E:27:0A:75:EE
            X509v3 Authority Key Identifier: 
                keyid:E1:C3:90:50:1C:40:C7:2F:11:19:E3:F0:60:56:47:C0:46:85:91:62

            X509v3 CRL Distribution Points: 

                Full Name:
                  URI:http://192.168.21.89/rootcrl.pem

    Signature Algorithm: sha1WithRSAEncryption
         9f:e0:e9:44:e6:92:97:76:e8:86:7b:15:6b:e9:06:f5:c3:53:
         41:c5:cc:6a:f6:bf:70:b1:be:7b:a7:c7:f1:a5:a4:1a:c7:e8:
         79:9f:dc:3f:a7:2b:f9:f0:45:dd:02:3e:f6:5b:3d:53:50:5d:
         d5:5d:08:bd:ea:48:d5:12:19:11:d2:e3:62:38:88:8e:13:7f:
         77:7b:85:41:47:1c:37:7d:df:9d:1a:25:e2:b8:b8:b6:a4:3a:
         d5:4c:df:48:64:1b:72:37:61:31:35:a4:79:54:c2:f6:4c:21:
         7d:05:b3:63:24:4b:9c:4c:d7:e1:a4:17:a7:39:c4:ee:a4:8c:
         38:c1:3e:28:56:b5:83:94:36:4c:fc:50:e0:87:67:5f:56:5a:
         af:f8:99:39:c8:6b:97:b1:c0:3f:0a:81:ed:80:c6:04:17:82:
         ac:7f:ae:7b:ce:65:32:f0:b3:2a:88:08:1c:ba:c0:3c:ef:f3:
         f0:df:8c:c2:15:2b:9d:10:e5:b5:bd:c4:10:94:e1:ae:83:be:
         77:00:7d:0a:5b:da:7d:1a:aa:57:22:82:73:81:1f:9b:1d:de:
         f2:b3:06:c2:8d:f0:28:11:c6:db:39:96:37:f9:03:cb:7e:5d:
         9b:c2:2f:86:f9:1c:bd:36:c5:f1:8d:ab:e8:73:c9:fa:59:a8:
         cb:a2:24:e5:b2:4a:c5:b0:0a:c3:19:59:f8:48:8a:3c:ea:ed:
         f1:ee:8a:df:2c:35:32:40:c0:fd:af:06:d9:90:44:76:be:fd:
         d3:47:88:e3:13:90:52:8d:48:56:45:bc:69:24:2f:0e:de:b8:
         88:22:21:9b:a5:ff:d4:da:d7:1d:f9:41:7a:f2:86:36:b4:04:
         c4:ed:cb:73:66:48:ff:58:a4:17:ea:ae:34:50:2a:b9:a6:2a:
         a8:c6:75:de:b2:f6:4f:74:30:56:2a:f5:b6:9d:70:21:f2:58:
         ef:f9:66:fd:01:d0:a4:f1:82:31:0d:36:1e:96:55:b9:f4:4d:
         31:d9:fe:e2:a8:b9:11:7c:a7:dc:93:30:58:20:3e:b1:a9:79:
         65:c8:77:13:65:d1:7d:9c:dd:1e:1e:ec:6e:e6:7d:f2:fa:56:
         88:df:e1:05:8b:3b:1f:64:60:90:a8:44:d6:28:15:c5:b5:e0:
         9b:e1:0e:cb:3a:4b:97:1c:da:99:f4:5c:b3:1f:84:4f:75:ff:
         af:05:73:5a:4a:67:6c:ce:9c:5d:a2:ae:ef:1b:3f:1d:78:d1:
         7b:de:fa:77:52:d1:e9:35:66:ef:a9:31:ef:9f:f4:a8:f1:3f:
         fd:40:aa:86:9d:29:71:94:73:49:c4:3d:7a:82:f8:11:2b:3f:
         12:16:b6:2c:50:cf:4e:dc
-----BEGIN CERTIFICATE-----
MIIGSzCCBDOgAwIBAgIBEDANBgkqhkiG9w0BAQUFADCBkDELMAkGA1UEBhMCQkEx
CzAJBgNVBAgTAlJTMRMwEQYDVQQHEwpCYW5qYSBMdWthMSEwHwYDVQQKExhFbGVr
dHJvdGVobmlja2kgZmFrdWx0ZXQxDDAKBgNVBAsTA0VURjESMBAGA1UEAxQJQ0Ff
dGlqZWxvMRowGAYJKoZIhvcNAQkBFgtjYUBtYWlsLmNvbTAeFw0yNDAxMjIxNTI4
MjlaFw0yNTAxMjExNTI4MjlaMGMxCzAJBgNVBAYTAlZBMQ4wDAYDVQQIEwV2ZXNu
YTEOMAwGA1UEChMFdmVzbmExDjAMBgNVBAsTBXZlc25hMQ4wDAYDVQQDEwV2ZXNu
YTEUMBIGCSqGSIb3DQEJARYFdmVzbmEwggIiMA0GCSqGSIb3DQEBAQUAA4ICDwAw
ggIKAoICAQDX5AdhTEwGCj7Le3pEuNoWZdYD+vnPGsgfUQkNFSkuYYp5Z3bXphOD
T0O+lruFdyL4sxP6YCrrSQhpCKLNJndzY6b4zTqfnJ5+e+OU4ZcZ0bwcVbVnrg+t
L7gEnycFbjjyyxsOSplzzETQlOtfgAtW0tXTP++mbiuza09FdEwXDvpZqGNx75lE
/3PRrpoiZMddi7sUF+EuZZuvnjyEDTG1tDvwQoEfkeHRURw33dwDKhrJkyv8gL1r
7YeisyOQ24f1Whf/1Bh3H3XrfiHbc2A4nsx0VZ0QH1X25al4jBnXttp/FokBxJpM
+iQfqSIL94ins0qgvM2fIcqreJ3qUj9gQ61OqA/0EToLGroS04TeS9yHVPo5vPTl
61jf3eME8bIhHBk8ZuYkj/YCRfl/aRkFXLbsLNVM0DobXgNyBRoEx9XZlDfUwjn3
635K5SkxC0250edsh9ezz20hDLbpOoZ6w0Vi/jYYoWXLn12L4YX+ZZ7QO/bsxalw
pZw+xrB98eg35NlzbgF+GpxlmbpzLvp8DpXF68QoujF377eemdLdN8s+oRyEkaQ1
8cAzFXD8JQCyK8Jsp23VcXqoLBesZqMiokaJPJu4N+iKETx3CaanV8SF+miaP72I
bcdqdKawhDZR8vqNLzpkVVSz2+dPdMGk+Xq8dTkKV1AaIUbts8L73QIDAQABo4Hb
MIHYMAkGA1UdEwQCMAAwCwYDVR0PBAQDAgeAMB0GA1UdJQQWMBQGCCsGAQUFBwMC
BggrBgEFBQcDATAsBglghkgBhvhCAQ0EHxYdT3BlblNTTCBHZW5lcmF0ZWQgQ2Vy
dGlmaWNhdGUwHQYDVR0OBBYEFLVUwMAcKoG9GCSFjQuAqD4nCnXuMB8GA1UdIwQY
MBaAFOHDkFAcQMcvERnj8GBWR8BGhZFiMDEGA1UdHwQqMCgwJqAkoCKGIGh0dHA6
Ly8xOTIuMTY4LjIxLjg5L3Jvb3RjcmwucGVtMA0GCSqGSIb3DQEBBQUAA4ICAQCf
4OlE5pKXduiGexVr6Qb1w1NBxcxq9r9wsb57p8fxpaQax+h5n9w/pyv58EXdAj72
Wz1TUF3VXQi96kjVEhkR0uNiOIiOE393e4VBRxw3fd+dGiXiuLi2pDrVTN9IZBty
N2ExNaR5VML2TCF9BbNjJEucTNfhpBenOcTupIw4wT4oVrWDlDZM/FDgh2dfVlqv
+Jk5yGuXscA/CoHtgMYEF4Ksf657zmUy8LMqiAgcusA87/Pw34zCFSudEOW1vcQQ
lOGug753AH0KW9p9GqpXIoJzgR+bHd7yswbCjfAoEcbbOZY3+QPLfl2bwi+G+Ry9
NsXxjavoc8n6WajLoiTlskrFsArDGVn4SIo86u3x7orfLDUyQMD9rwbZkER2vv3T
R4jjE5BSjUhWRbxpJC8O3riIIiGbpf/U2tcd+UF68oY2tATE7ctzZkj/WKQX6q40
UCq5piqoxnXesvZPdDBWKvW2nXAh8ljv+Wb9AdCk8YIxDTYellW59E0x2f7iqLkR
fKfckzBYID6xqXllyHcTZdF9nN0eHuxu5n3y+laI3+EFizsfZGCQqETWKBXFteCb
4Q7LOkuXHNqZ9FyzH4RPdf+vBXNaSmdszpxdoq7vGz8deNF73vp3UtHpNWbvqTHv
n/So8T/9QKqGnSlxlHNJxD16gvgRKz8SFrYsUM9O3A==
-----END CERTIFICATE-----
