Certificate:
    Data:
        Version: 3 (0x2)
        Serial Number: 18 (0x12)
        Signature Algorithm: sha1WithRSAEncryption
        Issuer: C=BA, ST=RS, L=Banja Luka, O=Elektrotehnicki fakultet, OU=ETF, CN=CA_tijelo/emailAddress=ca@mail.com
        Validity
            Not Before: Jan 22 19:33:32 2024 GMT
            Not After : Jan 21 19:33:32 2025 GMT
        Subject: C=sl, ST=sl, O=sl, OU=sl, CN=sl/emailAddress=sl
        Subject Public Key Info:
            Public Key Algorithm: rsaEncryption
                RSA Public-Key: (4096 bit)
                Modulus:
                    00:ae:a6:44:95:02:2a:d4:56:e1:ef:b9:ec:73:13:
                    35:14:a9:05:0e:b2:9d:94:af:6f:19:17:0b:3c:70:
                    4f:a4:68:35:10:ed:9a:ce:c3:90:79:23:14:0f:f7:
                    4e:e0:72:df:91:e2:b8:bc:b8:33:3c:d3:69:53:ce:
                    00:0c:d0:5f:48:3a:fb:94:dd:7d:36:b8:13:a4:0f:
                    78:94:8a:03:99:84:bd:34:be:b9:cb:68:f4:de:b3:
                    7b:9e:d8:de:9e:91:10:e4:02:60:11:dd:6c:38:95:
                    49:ca:3a:bc:8d:21:52:db:2b:36:34:10:c6:01:bb:
                    a0:75:74:7b:7e:2c:cd:80:d6:61:c5:00:3e:43:ec:
                    4a:99:0a:ca:b3:2d:3c:48:d9:ff:68:e6:bd:24:52:
                    55:f2:03:e2:23:eb:86:78:da:37:79:03:da:1b:b2:
                    4e:71:95:36:4a:da:03:96:d3:4e:c5:61:34:72:50:
                    2b:50:3f:5c:0e:44:9d:cb:a0:0e:76:8d:ec:f4:d6:
                    77:61:9f:c6:fc:f4:ed:3b:72:65:a9:cd:b8:dd:ef:
                    84:b9:34:3e:b1:0a:bb:b0:e4:d7:88:47:b5:08:5d:
                    f9:2f:66:41:fe:a2:fc:1e:f2:e6:31:c6:10:9e:3d:
                    de:7a:99:79:35:23:84:f9:37:f5:e1:80:b0:a9:c4:
                    78:cf:c0:eb:77:bf:91:ed:9e:c0:58:ff:88:57:a7:
                    85:84:d9:14:ab:c5:96:e1:d0:43:6e:dd:17:4c:48:
                    9f:e4:c6:85:97:fb:4a:fe:6d:4c:33:3e:ed:39:67:
                    4c:43:2c:cc:76:f9:8f:3a:70:a9:5d:e4:3f:7b:87:
                    56:72:8b:1a:8e:8c:21:fc:a0:52:1f:d2:11:14:18:
                    c3:8a:05:23:84:b8:bb:a2:40:fc:c0:18:d0:1b:3d:
                    9c:87:7f:d9:2b:ca:59:a8:ad:36:ad:99:ca:54:4b:
                    ed:30:a3:59:ac:a1:71:d5:39:cf:12:0e:67:0e:ec:
                    47:e7:96:6b:46:86:a9:1b:3d:82:10:20:13:e8:e8:
                    6e:66:37:37:77:c6:63:17:ca:f9:24:68:6e:e2:02:
                    61:69:83:e6:e9:ce:fb:7d:b0:c3:dd:c0:86:e1:3a:
                    47:c0:2f:bf:d0:fc:51:f5:e0:f0:98:11:d1:68:84:
                    1e:ea:22:94:ad:0b:2f:a5:76:dc:e4:40:ce:fd:bc:
                    4c:a4:3a:0b:58:e8:79:62:20:42:51:a9:04:73:15:
                    ce:8d:76:bb:5e:45:02:fa:40:0e:8e:18:64:8f:e6:
                    45:b9:66:44:02:26:31:7b:12:13:d5:e5:fb:72:bd:
                    a5:ff:70:17:d7:ef:30:1a:15:d1:1e:82:1d:a2:98:
                    56:ca:09
                Exponent: 65537 (0x10001)
        X509v3 extensions:
            X509v3 Basic Constraints: 
                CA:FALSE
            X509v3 Key Usage: 
                Digital Signature
            X509v3 Extended Key Usage: 
                TLS Web Client Authentication, TLS Web Server Authentication
            Netscape Comment: 
                OpenSSL Generated Certificate
            X509v3 Subject Key Identifier: 
                B5:0A:C4:38:6D:AD:7C:95:7C:AF:4D:69:63:3A:6A:24:67:F2:92:12
            X509v3 Authority Key Identifier: 
                keyid:E1:C3:90:50:1C:40:C7:2F:11:19:E3:F0:60:56:47:C0:46:85:91:62

            X509v3 CRL Distribution Points: 

                Full Name:
                  URI:http://192.168.21.89/rootcrl.pem

    Signature Algorithm: sha1WithRSAEncryption
         83:64:41:16:af:12:79:fe:27:79:8c:c8:6e:47:5d:37:e7:e4:
         1e:5b:ea:79:76:95:32:a2:f9:52:cb:1e:12:45:36:e1:11:06:
         19:30:c0:53:14:7a:b4:ac:2a:31:a5:cb:23:3e:cc:31:60:de:
         64:f1:80:b9:75:d5:40:11:00:a8:eb:e5:8c:d5:66:32:36:a0:
         0f:3e:13:f7:91:05:64:6a:5e:6e:6c:9b:cf:33:ac:a7:cb:e7:
         53:c6:8a:c9:2a:4e:81:a9:f0:75:64:0b:5b:3c:77:21:cb:4f:
         41:f8:21:0c:e9:92:12:4c:4b:0c:3d:64:4b:ef:16:ac:17:77:
         c2:c5:1d:59:c8:b6:52:e0:78:88:57:a2:d4:e8:68:e7:24:70:
         27:8e:15:92:35:bc:17:de:4e:92:81:b1:2c:4e:78:d6:4a:fa:
         a4:53:a5:ca:10:f7:ef:2a:13:7e:2b:d8:50:20:74:8c:62:34:
         4a:07:47:a5:e6:c0:d9:ec:76:c1:48:8a:0a:07:cc:df:6f:e8:
         a3:40:86:2b:73:7c:54:ed:61:a7:2a:6d:bd:e2:3f:6d:8d:ac:
         93:d9:5f:37:85:48:e8:ba:b6:7d:cd:f5:b6:60:95:a5:25:cd:
         fe:05:4c:85:8e:e3:0e:21:70:40:c7:f9:b4:02:a7:87:41:f0:
         4f:22:79:7c:16:14:5a:f1:c3:6b:6d:06:4d:fa:27:e4:8e:5e:
         33:95:ea:f3:2f:8a:39:d9:d9:41:7e:ea:25:80:72:cf:8b:85:
         7b:e9:29:26:d9:4b:1b:12:25:32:1b:e5:05:19:50:cd:e4:18:
         ab:d4:5d:75:4d:a0:d9:92:c0:7e:18:6c:e3:81:cc:1e:6d:6c:
         1d:f1:1b:5c:1d:e7:2a:01:a5:d6:bf:5c:51:30:bf:23:c6:cf:
         d8:58:8b:be:a6:23:23:94:0e:3d:c5:90:f9:ef:2d:3c:25:44:
         d2:83:98:da:be:9e:ad:09:9f:0d:0e:a2:65:7f:3c:86:81:c9:
         bd:a9:09:78:52:94:2e:da:66:f1:52:67:88:69:4a:ed:35:a4:
         6b:c2:93:0c:90:6f:12:14:c3:c0:f0:c7:58:c1:58:9e:83:04:
         2c:37:f3:65:6e:3c:50:c2:33:0a:d5:5a:0e:e9:c3:f0:52:50:
         e5:c1:90:8a:96:76:17:1f:23:f3:0b:2b:99:20:9b:8b:13:ad:
         db:52:5a:db:0a:48:b9:35:3a:b2:1b:21:88:73:25:4f:2f:cd:
         51:1b:a4:85:e8:63:3c:97:c7:31:d6:07:7e:74:d3:a4:cb:e7:
         98:8f:0a:03:b0:d5:ab:3d:a7:7b:18:b7:40:0c:cf:c1:92:b4:
         70:31:a5:66:1b:04:4a:92
-----BEGIN CERTIFICATE-----
MIIGPDCCBCSgAwIBAgIBEjANBgkqhkiG9w0BAQUFADCBkDELMAkGA1UEBhMCQkEx
CzAJBgNVBAgTAlJTMRMwEQYDVQQHEwpCYW5qYSBMdWthMSEwHwYDVQQKExhFbGVr
dHJvdGVobmlja2kgZmFrdWx0ZXQxDDAKBgNVBAsTA0VURjESMBAGA1UEAxQJQ0Ff
dGlqZWxvMRowGAYJKoZIhvcNAQkBFgtjYUBtYWlsLmNvbTAeFw0yNDAxMjIxOTMz
MzJaFw0yNTAxMjExOTMzMzJaMFQxCzAJBgNVBAYTAnNsMQswCQYDVQQIEwJzbDEL
MAkGA1UEChMCc2wxCzAJBgNVBAsTAnNsMQswCQYDVQQDEwJzbDERMA8GCSqGSIb3
DQEJARYCc2wwggIiMA0GCSqGSIb3DQEBAQUAA4ICDwAwggIKAoICAQCupkSVAirU
VuHvuexzEzUUqQUOsp2Ur28ZFws8cE+kaDUQ7ZrOw5B5IxQP907gct+R4ri8uDM8
02lTzgAM0F9IOvuU3X02uBOkD3iUigOZhL00vrnLaPTes3ue2N6ekRDkAmAR3Ww4
lUnKOryNIVLbKzY0EMYBu6B1dHt+LM2A1mHFAD5D7EqZCsqzLTxI2f9o5r0kUlXy
A+Ij64Z42jd5A9obsk5xlTZK2gOW007FYTRyUCtQP1wORJ3LoA52jez01ndhn8b8
9O07cmWpzbjd74S5ND6xCruw5NeIR7UIXfkvZkH+ovwe8uYxxhCePd56mXk1I4T5
N/XhgLCpxHjPwOt3v5HtnsBY/4hXp4WE2RSrxZbh0ENu3RdMSJ/kxoWX+0r+bUwz
Pu05Z0xDLMx2+Y86cKld5D97h1ZyixqOjCH8oFIf0hEUGMOKBSOEuLuiQPzAGNAb
PZyHf9krylmorTatmcpUS+0wo1msoXHVOc8SDmcO7EfnlmtGhqkbPYIQIBPo6G5m
Nzd3xmMXyvkkaG7iAmFpg+bpzvt9sMPdwIbhOkfAL7/Q/FH14PCYEdFohB7qIpSt
Cy+ldtzkQM79vEykOgtY6HliIEJRqQRzFc6NdrteRQL6QA6OGGSP5kW5ZkQCJjF7
EhPV5ftyvaX/cBfX7zAaFdEegh2imFbKCQIDAQABo4HbMIHYMAkGA1UdEwQCMAAw
CwYDVR0PBAQDAgeAMB0GA1UdJQQWMBQGCCsGAQUFBwMCBggrBgEFBQcDATAsBglg
hkgBhvhCAQ0EHxYdT3BlblNTTCBHZW5lcmF0ZWQgQ2VydGlmaWNhdGUwHQYDVR0O
BBYEFLUKxDhtrXyVfK9NaWM6aiRn8pISMB8GA1UdIwQYMBaAFOHDkFAcQMcvERnj
8GBWR8BGhZFiMDEGA1UdHwQqMCgwJqAkoCKGIGh0dHA6Ly8xOTIuMTY4LjIxLjg5
L3Jvb3RjcmwucGVtMA0GCSqGSIb3DQEBBQUAA4ICAQCDZEEWrxJ5/id5jMhuR103
5+QeW+p5dpUyovlSyx4SRTbhEQYZMMBTFHq0rCoxpcsjPswxYN5k8YC5ddVAEQCo
6+WM1WYyNqAPPhP3kQVkal5ubJvPM6yny+dTxorJKk6BqfB1ZAtbPHchy09B+CEM
6ZISTEsMPWRL7xasF3fCxR1ZyLZS4HiIV6LU6GjnJHAnjhWSNbwX3k6SgbEsTnjW
SvqkU6XKEPfvKhN+K9hQIHSMYjRKB0el5sDZ7HbBSIoKB8zfb+ijQIYrc3xU7WGn
Km294j9tjayT2V83hUjourZ9zfW2YJWlJc3+BUyFjuMOIXBAx/m0AqeHQfBPInl8
FhRa8cNrbQZN+ifkjl4zlerzL4o52dlBfuolgHLPi4V76Skm2UsbEiUyG+UFGVDN
5Bir1F11TaDZksB+GGzjgcwebWwd8RtcHecqAaXWv1xRML8jxs/YWIu+piMjlA49
xZD57y08JUTSg5javp6tCZ8NDqJlfzyGgcm9qQl4UpQu2mbxUmeIaUrtNaRrwpMM
kG8SFMPA8MdYwViegwQsN/NlbjxQwjMK1VoO6cPwUlDlwZCKlnYXHyPzCyuZIJuL
E63bUlrbCki5NTqyGyGIcyVPL81RG6SF6GM8l8cx1gd+dNOky+eYjwoDsNWrPad7
GLdADM/BkrRwMaVmGwRKkg==
-----END CERTIFICATE-----
