Certificate:
    Data:
        Version: 3 (0x2)
        Serial Number: 19 (0x13)
        Signature Algorithm: sha1WithRSAEncryption
        Issuer: C=BA, ST=RS, L=Banja Luka, O=Elektrotehnicki fakultet, OU=ETF, CN=CA_tijelo/emailAddress=ca@mail.com
        Validity
            Not Before: Jan 22 21:57:55 2024 GMT
            Not After : Jan 21 21:57:55 2025 GMT
        Subject: C=BA, ST=RS, O=etf, OU=etf, CN=sarka/emailAddress=sarka
        Subject Public Key Info:
            Public Key Algorithm: rsaEncryption
                RSA Public-Key: (4096 bit)
                Modulus:
                    00:bf:b4:c3:88:80:42:60:69:8b:37:c3:8b:10:2e:
                    55:e0:4d:00:49:2f:20:ee:5c:b4:ce:04:d8:b5:ad:
                    ee:60:f8:cd:14:d2:37:15:93:44:e8:3e:04:5d:06:
                    74:d6:a6:a4:fb:24:16:87:b9:e0:54:81:ca:91:94:
                    f9:d4:7e:f2:ff:46:7b:32:ea:a2:57:9c:de:1c:18:
                    6b:32:2e:72:d7:f0:19:2c:c3:5c:ae:95:a8:18:66:
                    0f:e8:51:1a:0e:c8:ce:10:7a:01:56:64:e9:43:ac:
                    56:be:8a:bd:e6:50:ce:63:dc:8e:87:99:28:0f:59:
                    2c:93:67:70:97:79:41:2a:85:1f:25:ba:c3:37:1d:
                    b8:d0:e9:97:67:50:5e:12:67:07:9c:c5:f0:bd:b5:
                    fa:91:9e:c8:d7:52:a5:66:bb:84:5a:d2:58:4e:a0:
                    ff:a2:48:8c:fc:81:b4:53:7e:b2:ef:66:64:3a:48:
                    6d:fb:38:0e:de:fa:96:4d:f7:45:98:03:d7:62:e1:
                    65:a5:ed:aa:2f:98:3c:08:96:b9:d0:2a:8d:10:76:
                    85:39:3f:9b:37:7c:0b:27:81:5a:0d:d5:12:bb:42:
                    30:70:65:6f:e9:90:ae:4c:9d:ea:f8:34:63:18:66:
                    a2:97:01:d9:ad:1a:f1:f9:6d:ba:ea:36:43:ff:4d:
                    c3:9e:c6:ec:5f:4e:40:ee:42:45:34:83:1d:f8:72:
                    7f:84:d7:90:85:99:5a:76:fb:fc:70:fc:5e:dc:bf:
                    76:0c:ca:53:ab:7d:f1:c8:20:2b:19:72:14:6b:c3:
                    dc:99:90:02:e2:af:49:20:f0:af:fa:a7:7c:29:fc:
                    83:87:46:33:cc:87:03:cd:0c:81:94:eb:d3:4d:b6:
                    9f:88:18:74:7a:c1:5a:3f:c3:fa:b1:a4:cd:9e:83:
                    87:77:f2:7a:ff:c6:2a:99:2d:08:cd:88:f6:1b:b9:
                    3c:20:60:65:8a:ba:c2:b5:08:ec:a0:81:bb:68:2f:
                    71:3f:2d:56:fa:72:c7:da:d7:d8:51:0f:3f:d8:00:
                    46:7c:00:f0:88:46:79:98:00:7b:d6:8a:13:ce:e3:
                    5a:99:c1:ee:62:25:33:95:d4:d9:e2:46:40:2c:40:
                    e1:0d:f2:79:26:4c:83:fc:29:70:af:b2:98:12:aa:
                    e6:8c:60:7a:a5:ea:93:ec:e3:79:5a:11:b0:13:31:
                    e8:b2:6a:c1:e7:20:57:e5:6a:d2:67:73:f7:5d:98:
                    4d:d6:94:cd:08:40:9f:10:51:0e:6f:76:3c:c0:aa:
                    a6:02:9d:ac:83:be:58:f2:18:a9:c5:50:a6:b3:8a:
                    51:00:3e:c9:f0:b9:46:31:61:5d:8d:7c:cb:bb:19:
                    66:0b:33
                Exponent: 65537 (0x10001)
        X509v3 extensions:
            X509v3 Basic Constraints: 
                CA:FALSE
            X509v3 Key Usage: 
                Digital Signature
            X509v3 Extended Key Usage: 
                TLS Web Client Authentication, TLS Web Server Authentication
            Netscape Comment: 
                OpenSSL Generated Certificate
            X509v3 Subject Key Identifier: 
                D6:FF:C5:D6:8D:B4:31:11:32:5A:D5:EE:1F:7F:5C:F0:C4:A2:BA:C1
            X509v3 Authority Key Identifier: 
                keyid:E1:C3:90:50:1C:40:C7:2F:11:19:E3:F0:60:56:47:C0:46:85:91:62

            X509v3 CRL Distribution Points: 

                Full Name:
                  URI:http://192.168.21.89/rootcrl.pem

    Signature Algorithm: sha1WithRSAEncryption
         72:85:5c:70:58:0d:c3:38:76:8f:45:6d:27:28:9f:ed:05:8b:
         f6:e1:7d:b1:dd:42:7f:c9:9d:33:a1:45:6b:92:ad:19:07:d4:
         a0:4d:07:f1:b7:bc:da:3f:a8:02:cf:6d:f9:6e:68:3c:88:df:
         46:40:6c:9d:1a:38:89:34:2c:58:74:bf:ea:b6:cd:ca:85:f5:
         fc:23:6e:4e:3a:75:f0:4d:51:79:5a:19:89:2d:d3:b4:98:12:
         82:bf:aa:dd:31:63:3a:7e:86:94:54:c3:a1:a7:ea:bb:45:7a:
         35:20:bb:88:0f:97:50:ff:7d:d2:99:03:24:cf:12:85:ce:b2:
         70:30:9f:6a:e2:08:a9:0d:ec:ea:64:5a:48:c0:18:ea:4a:bd:
         11:86:32:3e:bb:78:e8:f3:f8:4d:a5:88:fb:d7:d6:d5:19:d6:
         1a:eb:ca:15:f1:0d:5a:ac:ef:a4:e8:7f:17:d4:72:aa:d4:9d:
         c1:d0:cf:a4:d7:5c:b4:ac:d0:99:e0:c1:df:c8:48:0e:1a:de:
         a6:fa:3e:62:fd:40:01:40:3e:75:81:cd:11:54:00:d6:62:ea:
         4d:99:da:c7:08:7a:93:29:2e:11:26:e5:4a:95:c1:d1:ea:5c:
         71:2c:5c:eb:50:d1:0b:36:4c:2b:0e:cb:a3:fe:36:2a:ad:1c:
         cf:14:96:e6:83:f3:d8:10:e0:d1:00:41:e6:f0:24:66:de:9a:
         b8:d0:80:25:d8:e6:dd:80:ae:b9:3f:06:ab:5d:df:08:c0:6c:
         e4:61:43:b3:1b:c4:a9:67:7c:f7:84:f2:e1:45:ee:e3:4f:55:
         54:c2:5e:85:3c:9b:8a:1f:f1:e3:fb:4a:98:2d:63:10:7d:91:
         0e:a5:6b:34:9d:6d:fa:3c:6e:2d:9e:ee:f5:08:7d:30:9e:bc:
         42:59:e5:d9:75:a1:9d:3d:19:88:72:26:57:c7:1e:9f:e6:ec:
         a9:41:49:64:35:f7:ca:e4:49:cc:9a:e7:8f:c7:a5:b1:c1:f4:
         8c:4e:a8:31:67:45:87:2f:74:fc:b1:75:33:dc:e3:71:73:6a:
         9d:09:9a:4d:82:11:fe:0a:67:47:a0:4e:61:60:76:4a:0f:91:
         a6:30:89:fb:fd:33:73:07:fd:13:a2:d4:61:1b:54:45:81:99:
         e2:8e:c2:4a:eb:00:36:48:39:48:10:b0:54:a9:e9:14:f6:b2:
         8e:c0:5a:85:91:5c:cf:db:ba:b3:62:cd:ec:93:30:68:26:ea:
         9c:b4:59:00:73:e6:74:1f:0a:78:48:bc:50:69:d4:40:39:96:
         26:cb:a8:a8:e7:1d:30:2a:00:0d:4b:51:b2:80:5d:ec:64:95:
         15:ed:0b:2c:62:6c:e6:f0
-----BEGIN CERTIFICATE-----
MIIGRDCCBCygAwIBAgIBEzANBgkqhkiG9w0BAQUFADCBkDELMAkGA1UEBhMCQkEx
CzAJBgNVBAgTAlJTMRMwEQYDVQQHEwpCYW5qYSBMdWthMSEwHwYDVQQKExhFbGVr
dHJvdGVobmlja2kgZmFrdWx0ZXQxDDAKBgNVBAsTA0VURjESMBAGA1UEAxQJQ0Ff
dGlqZWxvMRowGAYJKoZIhvcNAQkBFgtjYUBtYWlsLmNvbTAeFw0yNDAxMjIyMTU3
NTVaFw0yNTAxMjEyMTU3NTVaMFwxCzAJBgNVBAYTAkJBMQswCQYDVQQIEwJSUzEM
MAoGA1UEChMDZXRmMQwwCgYDVQQLEwNldGYxDjAMBgNVBAMTBXNhcmthMRQwEgYJ
KoZIhvcNAQkBFgVzYXJrYTCCAiIwDQYJKoZIhvcNAQEBBQADggIPADCCAgoCggIB
AL+0w4iAQmBpizfDixAuVeBNAEkvIO5ctM4E2LWt7mD4zRTSNxWTROg+BF0GdNam
pPskFoe54FSBypGU+dR+8v9GezLqolec3hwYazIuctfwGSzDXK6VqBhmD+hRGg7I
zhB6AVZk6UOsVr6KveZQzmPcjoeZKA9ZLJNncJd5QSqFHyW6wzcduNDpl2dQXhJn
B5zF8L21+pGeyNdSpWa7hFrSWE6g/6JIjPyBtFN+su9mZDpIbfs4Dt76lk33RZgD
12LhZaXtqi+YPAiWudAqjRB2hTk/mzd8CyeBWg3VErtCMHBlb+mQrkyd6vg0Yxhm
opcB2a0a8fltuuo2Q/9Nw57G7F9OQO5CRTSDHfhyf4TXkIWZWnb7/HD8Xty/dgzK
U6t98cggKxlyFGvD3JmQAuKvSSDwr/qnfCn8g4dGM8yHA80MgZTr0022n4gYdHrB
Wj/D+rGkzZ6Dh3fyev/GKpktCM2I9hu5PCBgZYq6wrUI7KCBu2gvcT8tVvpyx9rX
2FEPP9gARnwA8IhGeZgAe9aKE87jWpnB7mIlM5XU2eJGQCxA4Q3yeSZMg/wpcK+y
mBKq5oxgeqXqk+zjeVoRsBMx6LJqwecgV+Vq0mdz912YTdaUzQhAnxBRDm92PMCq
pgKdrIO+WPIYqcVQprOKUQA+yfC5RjFhXY18y7sZZgszAgMBAAGjgdswgdgwCQYD
VR0TBAIwADALBgNVHQ8EBAMCB4AwHQYDVR0lBBYwFAYIKwYBBQUHAwIGCCsGAQUF
BwMBMCwGCWCGSAGG+EIBDQQfFh1PcGVuU1NMIEdlbmVyYXRlZCBDZXJ0aWZpY2F0
ZTAdBgNVHQ4EFgQU1v/F1o20MREyWtXuH39c8MSiusEwHwYDVR0jBBgwFoAU4cOQ
UBxAxy8RGePwYFZHwEaFkWIwMQYDVR0fBCowKDAmoCSgIoYgaHR0cDovLzE5Mi4x
NjguMjEuODkvcm9vdGNybC5wZW0wDQYJKoZIhvcNAQEFBQADggIBAHKFXHBYDcM4
do9FbScon+0Fi/bhfbHdQn/JnTOhRWuSrRkH1KBNB/G3vNo/qALPbfluaDyI30ZA
bJ0aOIk0LFh0v+q2zcqF9fwjbk46dfBNUXlaGYkt07SYEoK/qt0xYzp+hpRUw6Gn
6rtFejUgu4gPl1D/fdKZAyTPEoXOsnAwn2riCKkN7OpkWkjAGOpKvRGGMj67eOjz
+E2liPvX1tUZ1hrryhXxDVqs76TofxfUcqrUncHQz6TXXLSs0Jngwd/ISA4a3qb6
PmL9QAFAPnWBzRFUANZi6k2Z2scIepMpLhEm5UqVwdHqXHEsXOtQ0Qs2TCsOy6P+
NiqtHM8UluaD89gQ4NEAQebwJGbemrjQgCXY5t2Arrk/Bqtd3wjAbORhQ7MbxKln
fPeE8uFF7uNPVVTCXoU8m4of8eP7SpgtYxB9kQ6lazSdbfo8bi2e7vUIfTCevEJZ
5dl1oZ09GYhyJlfHHp/m7KlBSWQ198rkScya54/HpbHB9IxOqDFnRYcvdPyxdTPc
43Fzap0Jmk2CEf4KZ0egTmFgdkoPkaYwifv9M3MH/ROi1GEbVEWBmeKOwkrrADZI
OUgQsFSp6RT2so7AWoWRXM/burNizeyTMGgm6py0WQBz5nQfCnhIvFBp1EA5libL
qKjnHTAqAA1LUbKAXexklRXtCyxibObw
-----END CERTIFICATE-----
