Certificate:
    Data:
        Version: 3 (0x2)
        Serial Number: 22 (0x16)
        Signature Algorithm: sha1WithRSAEncryption
        Issuer: C=BA, ST=RS, L=Banja Luka, O=Elektrotehnicki fakultet, OU=ETF, CN=CA_tijelo/emailAddress=ca@mail.com
        Validity
            Not Before: Jan 23 09:14:53 2024 GMT
            Not After : Jan 22 09:14:53 2025 GMT
        Subject: C=BA, ST=RS, O=ETF, OU=ETF, CN=Masa/emailAddress=masa@mail.com
        Subject Public Key Info:
            Public Key Algorithm: rsaEncryption
                RSA Public-Key: (4096 bit)
                Modulus:
                    00:9d:8c:f8:e4:f1:c8:2e:db:a8:a5:6e:c9:88:15:
                    f8:38:b1:a1:80:72:1b:d9:23:1f:92:f0:d5:ea:e4:
                    a8:b1:f3:ac:4b:d0:e5:90:34:5f:92:17:02:5d:cc:
                    15:3a:92:a3:de:3c:51:c5:ba:43:8d:3b:d3:10:73:
                    2b:ac:57:6d:1a:69:03:8d:a5:e8:aa:cd:af:a0:f9:
                    22:d9:49:0e:c5:84:ce:5d:72:95:33:17:68:6e:44:
                    8b:bc:e0:d5:d5:d7:dd:72:c1:08:3a:51:fb:29:8f:
                    a4:15:87:8a:be:d9:f6:09:8b:12:bd:8d:9b:ab:85:
                    9f:90:f9:48:85:b7:dc:b4:c6:14:b9:1e:cb:78:7b:
                    52:59:f1:70:15:24:4d:90:35:0f:1a:b6:f6:fb:1b:
                    e9:08:42:74:89:ca:0b:fb:df:77:c1:a9:a2:93:ee:
                    f3:74:e0:bf:13:f0:10:1d:d4:24:58:67:42:0f:34:
                    b9:8e:fb:e0:f3:91:97:3b:05:21:48:4e:86:de:39:
                    7a:db:6f:4f:1c:bb:28:4b:5d:ba:63:80:c0:a1:35:
                    b1:7c:88:1c:96:76:9f:35:0a:dd:5c:49:d1:77:eb:
                    c8:7f:57:d3:c3:f8:37:b5:82:54:06:6c:91:95:35:
                    a0:40:72:4b:01:1c:30:13:c3:ce:03:ac:6f:b0:a4:
                    68:7f:7c:e7:1d:63:49:84:99:70:e8:b6:ed:db:0b:
                    28:49:35:0f:7a:c1:5e:9f:f1:03:57:1b:d6:6e:6c:
                    08:3d:45:60:98:28:40:d0:18:e4:fe:35:70:d8:8c:
                    f4:4f:5e:28:b6:28:de:29:53:74:fa:ae:97:82:20:
                    f6:a6:b3:57:bb:1a:d6:b8:cd:03:bc:c7:f1:3c:a7:
                    c6:aa:5c:9c:9c:47:ef:6e:fa:df:fc:73:f2:41:6a:
                    6f:82:42:c4:9f:9d:ef:cc:6d:14:59:d8:7f:26:7a:
                    76:7c:61:d6:64:c5:06:06:24:22:c2:41:38:af:c0:
                    6f:d6:6d:c1:9f:65:94:aa:92:06:de:9f:05:00:72:
                    a4:6b:79:a6:ed:32:8a:d6:6f:67:6c:ca:42:44:be:
                    f9:17:52:1d:37:67:0b:8e:8b:be:70:63:0a:c6:52:
                    50:c8:c7:a7:45:83:83:85:3a:e4:87:b6:be:1f:e8:
                    35:a7:be:66:cb:b7:e4:12:fe:9f:82:da:48:7f:be:
                    d1:67:9f:17:2b:02:b6:6f:39:ec:22:a3:5c:b6:36:
                    d7:08:9c:c4:eb:16:6e:ed:97:0d:df:f9:09:9e:68:
                    f0:45:e2:42:13:f7:f0:80:d1:ba:3e:b0:11:d5:68:
                    2c:ee:53:a8:50:a2:f4:cb:7e:fe:60:40:3a:d8:c1:
                    7b:d3:ed
                Exponent: 65537 (0x10001)
        X509v3 extensions:
            X509v3 Basic Constraints: 
                CA:FALSE
            X509v3 Key Usage: 
                Digital Signature
            X509v3 Extended Key Usage: 
                TLS Web Client Authentication, TLS Web Server Authentication
            Netscape Comment: 
                OpenSSL Generated Certificate
            X509v3 Subject Key Identifier: 
                37:CE:65:EF:0B:67:06:53:31:C5:07:FE:FD:A0:0B:E7:FE:ED:1C:A6
            X509v3 Authority Key Identifier: 
                keyid:E1:C3:90:50:1C:40:C7:2F:11:19:E3:F0:60:56:47:C0:46:85:91:62

            X509v3 CRL Distribution Points: 

                Full Name:
                  URI:http://192.168.21.89/rootcrl.pem

    Signature Algorithm: sha1WithRSAEncryption
         8a:73:2f:26:3e:2b:ea:76:2a:38:ed:d9:05:d2:76:ec:82:67:
         e2:b5:c0:92:60:13:61:9f:2c:5d:8b:b3:f9:32:be:6c:57:9e:
         40:7c:9c:8d:76:e3:60:6f:0c:2d:f3:2c:e9:9b:51:67:b9:97:
         69:88:e4:45:e6:21:74:b6:39:c2:aa:37:a2:e3:a5:f7:a1:af:
         c9:7e:e7:91:26:da:ed:2f:0e:ca:c7:d7:f4:2a:96:ab:5c:4c:
         ba:ad:8f:dc:ca:5a:c8:82:8f:10:53:4a:20:dd:87:40:f7:75:
         d8:1f:61:f6:39:e8:ed:38:2e:5d:59:c3:14:bf:0b:72:89:e1:
         88:b0:07:63:16:21:a0:18:81:89:84:49:b1:74:d7:7c:e2:8e:
         9b:84:cd:16:8c:cf:9b:ac:18:ec:1e:ec:fd:dc:e3:97:81:54:
         e2:51:a8:9a:ce:e3:e0:3d:2d:7c:57:11:e0:8f:c0:a2:b8:f6:
         e3:a9:77:b2:ac:4d:9d:a6:4d:32:b0:a6:90:a5:24:e3:38:ff:
         38:56:ed:f7:33:a3:ed:5f:91:2c:a3:24:41:29:14:c7:95:84:
         41:59:02:4a:a9:70:42:64:19:75:a3:05:82:03:d9:29:5a:4b:
         7e:ea:c9:21:9d:fc:3f:b0:c1:de:87:fc:6e:c3:00:55:93:f9:
         89:38:5b:06:ca:42:66:1e:bf:f5:65:bf:31:2b:50:6f:fc:64:
         86:b5:81:30:d1:37:73:3a:38:55:ed:ec:29:e1:29:1a:09:23:
         49:59:6a:79:3a:01:bb:af:85:62:c0:da:68:1e:5d:6f:98:cd:
         48:c8:ac:32:3c:97:6b:61:fc:c6:56:22:75:18:d3:cc:17:b2:
         cc:2c:cc:54:23:00:a6:b5:82:1e:c7:f7:69:d6:5c:4b:1e:6b:
         3c:41:81:98:6e:64:ff:31:94:d0:ae:2b:85:d9:7f:38:ca:57:
         45:e5:f1:7a:ff:8c:83:c8:5f:bd:2d:8c:cf:c9:98:f2:65:82:
         47:10:92:cb:a7:2f:33:63:26:73:96:fe:f3:a6:bb:45:7f:fe:
         35:25:eb:a8:1a:4b:de:5e:3b:f3:40:6f:2c:e2:66:35:d5:6f:
         48:6d:5d:44:7f:04:e6:77:20:1b:02:60:71:00:43:f3:d4:ad:
         6d:a4:d7:f0:76:29:e7:54:8e:c0:17:64:ce:16:a3:cc:9c:1b:
         20:f9:a5:8f:07:a8:39:9a:33:3a:a4:48:2b:42:7a:fe:88:e5:
         ec:e7:04:ec:5b:ac:5d:38:57:f0:f2:98:14:8d:fe:c2:45:b8:
         7e:cb:c0:f6:63:e6:ac:a8:1f:2f:82:73:40:bb:5f:8e:dc:d0:
         55:eb:72:82:16:76:73:04
-----BEGIN CERTIFICATE-----
MIIGSzCCBDOgAwIBAgIBFjANBgkqhkiG9w0BAQUFADCBkDELMAkGA1UEBhMCQkEx
CzAJBgNVBAgTAlJTMRMwEQYDVQQHEwpCYW5qYSBMdWthMSEwHwYDVQQKExhFbGVr
dHJvdGVobmlja2kgZmFrdWx0ZXQxDDAKBgNVBAsTA0VURjESMBAGA1UEAxQJQ0Ff
dGlqZWxvMRowGAYJKoZIhvcNAQkBFgtjYUBtYWlsLmNvbTAeFw0yNDAxMjMwOTE0
NTNaFw0yNTAxMjIwOTE0NTNaMGMxCzAJBgNVBAYTAkJBMQswCQYDVQQIEwJSUzEM
MAoGA1UEChMDRVRGMQwwCgYDVQQLEwNFVEYxDTALBgNVBAMTBE1hc2ExHDAaBgkq
hkiG9w0BCQEWDW1hc2FAbWFpbC5jb20wggIiMA0GCSqGSIb3DQEBAQUAA4ICDwAw
ggIKAoICAQCdjPjk8cgu26ilbsmIFfg4saGAchvZIx+S8NXq5Kix86xL0OWQNF+S
FwJdzBU6kqPePFHFukONO9MQcyusV20aaQONpeiqza+g+SLZSQ7FhM5dcpUzF2hu
RIu84NXV191ywQg6Ufspj6QVh4q+2fYJixK9jZurhZ+Q+UiFt9y0xhS5Hst4e1JZ
8XAVJE2QNQ8atvb7G+kIQnSJygv733fBqaKT7vN04L8T8BAd1CRYZ0IPNLmO++Dz
kZc7BSFITobeOXrbb08cuyhLXbpjgMChNbF8iByWdp81Ct1cSdF368h/V9PD+De1
glQGbJGVNaBAcksBHDATw84DrG+wpGh/fOcdY0mEmXDotu3bCyhJNQ96wV6f8QNX
G9ZubAg9RWCYKEDQGOT+NXDYjPRPXii2KN4pU3T6rpeCIPams1e7Gta4zQO8x/E8
p8aqXJycR+9u+t/8c/JBam+CQsSfne/MbRRZ2H8menZ8YdZkxQYGJCLCQTivwG/W
bcGfZZSqkgbenwUAcqRreabtMorWb2dsykJEvvkXUh03ZwuOi75wYwrGUlDIx6dF
g4OFOuSHtr4f6DWnvmbLt+QS/p+C2kh/vtFnnxcrArZvOewio1y2NtcInMTrFm7t
lw3f+QmeaPBF4kIT9/CA0bo+sBHVaCzuU6hQovTLfv5gQDrYwXvT7QIDAQABo4Hb
MIHYMAkGA1UdEwQCMAAwCwYDVR0PBAQDAgeAMB0GA1UdJQQWMBQGCCsGAQUFBwMC
BggrBgEFBQcDATAsBglghkgBhvhCAQ0EHxYdT3BlblNTTCBHZW5lcmF0ZWQgQ2Vy
dGlmaWNhdGUwHQYDVR0OBBYEFDfOZe8LZwZTMcUH/v2gC+f+7RymMB8GA1UdIwQY
MBaAFOHDkFAcQMcvERnj8GBWR8BGhZFiMDEGA1UdHwQqMCgwJqAkoCKGIGh0dHA6
Ly8xOTIuMTY4LjIxLjg5L3Jvb3RjcmwucGVtMA0GCSqGSIb3DQEBBQUAA4ICAQCK
cy8mPivqdio47dkF0nbsgmfitcCSYBNhnyxdi7P5Mr5sV55AfJyNduNgbwwt8yzp
m1FnuZdpiORF5iF0tjnCqjei46X3oa/JfueRJtrtLw7Kx9f0KparXEy6rY/cylrI
go8QU0og3YdA93XYH2H2OejtOC5dWcMUvwtyieGIsAdjFiGgGIGJhEmxdNd84o6b
hM0WjM+brBjsHuz93OOXgVTiUaiazuPgPS18VxHgj8CiuPbjqXeyrE2dpk0ysKaQ
pSTjOP84Vu33M6PtX5EsoyRBKRTHlYRBWQJKqXBCZBl1owWCA9kpWkt+6skhnfw/
sMHeh/xuwwBVk/mJOFsGykJmHr/1Zb8xK1Bv/GSGtYEw0TdzOjhV7ewp4SkaCSNJ
WWp5OgG7r4ViwNpoHl1vmM1IyKwyPJdrYfzGViJ1GNPMF7LMLMxUIwCmtYIex/dp
1lxLHms8QYGYbmT/MZTQriuF2X84yldF5fF6/4yDyF+9LYzPyZjyZYJHEJLLpy8z
YyZzlv7zprtFf/41JeuoGkveXjvzQG8s4mY11W9IbV1EfwTmdyAbAmBxAEPz1K1t
pNfwdinnVI7AF2TOFqPMnBsg+aWPB6g5mjM6pEgrQnr+iOXs5wTsW6xdOFfw8pgU
jf7CRbh+y8D2Y+asqB8vgnNAu1+O3NBV63KCFnZzBA==
-----END CERTIFICATE-----
